
bigtest1.elf:     file format elf32-littlenios2
bigtest1.elf
architecture: nios2:r1, flags 0x00000112:
EXEC_P, HAS_SYMS, D_PAGED
start address 0x0402023c

Program Header:
    LOAD off    0x00001000 vaddr 0x04020000 paddr 0x04020000 align 2**12
         filesz 0x00000020 memsz 0x00000020 flags r-x
    LOAD off    0x00001020 vaddr 0x04020020 paddr 0x04020020 align 2**12
         filesz 0x00013a2c memsz 0x00013a2c flags r-x
    LOAD off    0x00015000 vaddr 0x00000000 paddr 0x04033a4c align 2**12
         filesz 0x0000256c memsz 0x00002858 flags rw-

Sections:
Idx Name          Size      VMA       LMA       File off  Algn
  0 .entry        00000020  04020000  04020000  00001000  2**5
                  CONTENTS, ALLOC, LOAD, READONLY, CODE
  1 .exceptions   0000021c  04020020  04020020  00001020  2**2
                  CONTENTS, ALLOC, LOAD, READONLY, CODE
  2 .text         00013810  0402023c  0402023c  0000123c  2**2
                  CONTENTS, ALLOC, LOAD, READONLY, CODE
  3 .rodata       00000924  00000000  04033a4c  00015000  2**2
                  CONTENTS, ALLOC, LOAD, READONLY, DATA
  4 .rwdata       00001c48  00000924  04034370  00015924  2**2
                  CONTENTS, ALLOC, LOAD, DATA, SMALL_DATA
  5 .bss          000002ec  0000256c  04035fb8  0001756c  2**2
                  ALLOC, SMALL_DATA
  6 .sdram        00000000  00002858  00002858  0001756c  2**0
                  CONTENTS
  7 .onchip_memory2 00000000  04035fb8  04035fb8  0001756c  2**0
                  CONTENTS
  8 .comment      0000002d  00000000  00000000  0001756c  2**0
                  CONTENTS, READONLY
  9 .debug_aranges 00001458  00000000  00000000  000175a0  2**3
                  CONTENTS, READONLY, DEBUGGING, OCTETS
 10 .debug_info   0003b8f1  00000000  00000000  000189f8  2**0
                  CONTENTS, READONLY, DEBUGGING, OCTETS
 11 .debug_abbrev 0000eb6b  00000000  00000000  000542e9  2**0
                  CONTENTS, READONLY, DEBUGGING, OCTETS
 12 .debug_line   0001c293  00000000  00000000  00062e54  2**0
                  CONTENTS, READONLY, DEBUGGING, OCTETS
 13 .debug_frame  00002f88  00000000  00000000  0007f0e8  2**2
                  CONTENTS, READONLY, DEBUGGING, OCTETS
 14 .debug_str    0000491c  00000000  00000000  00082070  2**0
                  CONTENTS, READONLY, DEBUGGING, OCTETS
 15 .debug_loc    00021d47  00000000  00000000  0008698c  2**0
                  CONTENTS, READONLY, DEBUGGING, OCTETS
 16 .debug_alt_sim_info 00000030  00000000  00000000  000a86d4  2**2
                  CONTENTS, READONLY, DEBUGGING, OCTETS
 17 .debug_ranges 00002c40  00000000  00000000  000a8708  2**3
                  CONTENTS, READONLY, DEBUGGING, OCTETS
 18 .thread_model 00000003  00000000  00000000  000af1a6  2**0
                  CONTENTS, READONLY
 19 .cpu          0000000c  00000000  00000000  000af1a9  2**0
                  CONTENTS, READONLY
 20 .qsys         00000001  00000000  00000000  000af1b5  2**0
                  CONTENTS, READONLY
 21 .simulation_enabled 00000001  00000000  00000000  000af1b6  2**0
                  CONTENTS, READONLY
 22 .sysid_hash   00000004  00000000  00000000  000af1b7  2**0
                  CONTENTS, READONLY
 23 .sysid_base   00000004  00000000  00000000  000af1bb  2**0
                  CONTENTS, READONLY
 24 .sysid_time   00000004  00000000  00000000  000af1bf  2**0
                  CONTENTS, READONLY
 25 .stderr_dev   00000009  00000000  00000000  000af1c3  2**0
                  CONTENTS, READONLY
 26 .stdin_dev    00000009  00000000  00000000  000af1cc  2**0
                  CONTENTS, READONLY
 27 .stdout_dev   00000009  00000000  00000000  000af1d5  2**0
                  CONTENTS, READONLY
 28 .sopc_system_name 0000000e  00000000  00000000  000af1de  2**0
                  CONTENTS, READONLY
 29 .quartus_project_dir 0000003d  00000000  00000000  000af1ec  2**0
                  CONTENTS, READONLY
 30 .jdi          0000544d  00000000  00000000  000af229  2**0
                  CONTENTS, READONLY
 31 .sopcinfo     000928f1  00000000  00000000  000b4676  2**0
                  CONTENTS, READONLY
SYMBOL TABLE:
04020000 l    d  .entry	00000000 .entry
04020020 l    d  .exceptions	00000000 .exceptions
0402023c l    d  .text	00000000 .text
00000000 l    d  .rodata	00000000 .rodata
00000924 l    d  .rwdata	00000000 .rwdata
0000256c l    d  .bss	00000000 .bss
00002858 l    d  .sdram	00000000 .sdram
04035fb8 l    d  .onchip_memory2	00000000 .onchip_memory2
00000000 l    d  .comment	00000000 .comment
00000000 l    d  .debug_aranges	00000000 .debug_aranges
00000000 l    d  .debug_info	00000000 .debug_info
00000000 l    d  .debug_abbrev	00000000 .debug_abbrev
00000000 l    d  .debug_line	00000000 .debug_line
00000000 l    d  .debug_frame	00000000 .debug_frame
00000000 l    d  .debug_str	00000000 .debug_str
00000000 l    d  .debug_loc	00000000 .debug_loc
00000000 l    d  .debug_alt_sim_info	00000000 .debug_alt_sim_info
00000000 l    d  .debug_ranges	00000000 .debug_ranges
00000000 l    df *ABS*	00000000 ../bigtest1_bsp//obj/HAL/src/crt0.o
04020284 l       .text	00000000 alt_after_alt_main
00000000 l    df *ABS*	00000000 alt_irq_handler.c
00000000 l    df *ABS*	00000000 alt_instruction_exception_entry.c
00000000 l    df *ABS*	00000000 main.c
00000000 l    df *ABS*	00000000 bet.c
00000000 l    df *ABS*	00000000 bitify.c
00000000 l    df *ABS*	00000000 digify.c
00000000 l    df *ABS*	00000000 filter.c
00000000 l    df *ABS*	00000000 jsonDecode.c
00000000 l    df *ABS*	00000000 jsonEncode.c
00000000 l    df *ABS*	00000000 printDec.c
00000000 l    df *ABS*	00000000 request.c
00000000 l    df *ABS*	00000000 setup.c
00000000 l    df *ABS*	00000000 shake.c
00000000 l    df *ABS*	00000000 timerLoop.c
00000000 l    df *ABS*	00000000 lib2-divmod.c
00000000 l    df *ABS*	00000000 addsf3.c
00000000 l    df *ABS*	00000000 divsf3.c
00000000 l    df *ABS*	00000000 mulsf3.c
00000000 l    df *ABS*	00000000 fixsfsi.c
00000000 l    df *ABS*	00000000 floatsisf.c
00000000 l    df *ABS*	00000000 libgcc2.c
00000000 l    df *ABS*	00000000 libgcc2.c
00000000 l    df *ABS*	00000000 fclose.c
04023450 l     F .text	000000c0 _fclose_r.part.0
00000000 l    df *ABS*	00000000 fflush.c
00000000 l    df *ABS*	00000000 findfp.c
040238fc l     F .text	00000008 __fp_lock
04023910 l     F .text	00000008 __fp_unlock
04023918 l     F .text	00000168 __sinit.part.0
00000000 l    df *ABS*	00000000 fopen.c
00000000 l    df *ABS*	00000000 fprintf.c
00000000 l    df *ABS*	00000000 fputc.c
00000000 l    df *ABS*	00000000 mallocr.c
00000000 l    df *ABS*	00000000 fseek.c
00000000 l    df *ABS*	00000000 fseeko.c
00000000 l    df *ABS*	00000000 fstatr.c
00000000 l    df *ABS*	00000000 ftello.c
00000000 l    df *ABS*	00000000 fwalk.c
00000000 l    df *ABS*	00000000 fwrite.c
00000000 l    df *ABS*	00000000 getc.c
00000000 l    df *ABS*	00000000 impure.c
00000964 l     O .rwdata	00000424 impure_data
00000000 l    df *ABS*	00000000 int_errno.c
00000000 l    df *ABS*	00000000 makebuf.c
00000000 l    df *ABS*	00000000 malloc.c
00000000 l    df *ABS*	00000000 mallocr.c
00000000 l    df *ABS*	00000000 memcpy.c
00000000 l    df *ABS*	00000000 memset.c
00000000 l    df *ABS*	00000000 openr.c
00000000 l    df *ABS*	00000000 putc.c
00000000 l    df *ABS*	00000000 puts.c
00000000 l    df *ABS*	00000000 refill.c
04025b5c l     F .text	0000001c lflush
00000000 l    df *ABS*	00000000 rget.c
00000000 l    df *ABS*	00000000 sbrkr.c
00000000 l    df *ABS*	00000000 stdio.c
00000000 l    df *ABS*	00000000 strcmp.c
00000000 l    df *ABS*	00000000 strlen.c
00000000 l    df *ABS*	00000000 vfprintf.c
0402822c l     F .text	000000c0 __sbprintf
0000041c l     O .rodata	00000010 blanks.1
0000040c l     O .rodata	00000010 zeroes.0
00000000 l    df *ABS*	00000000 wbuf.c
00000000 l    df *ABS*	00000000 writer.c
00000000 l    df *ABS*	00000000 wsetup.c
00000000 l    df *ABS*	00000000 closer.c
00000000 l    df *ABS*	00000000 dtoa.c
0402866c l     F .text	000001fc quorem
00000000 l    df *ABS*	00000000 flags.c
00000000 l    df *ABS*	00000000 fvwrite.c
00000000 l    df *ABS*	00000000 isattyr.c
00000000 l    df *ABS*	00000000 localeconv.c
00000000 l    df *ABS*	00000000 lseekr.c
00000000 l    df *ABS*	00000000 memchr.c
00000000 l    df *ABS*	00000000 memmove.c
00000000 l    df *ABS*	00000000 mprec.c
000004c8 l     O .rodata	0000000c p05.0
00000000 l    df *ABS*	00000000 readr.c
00000000 l    df *ABS*	00000000 mallocr.c
00000000 l    df *ABS*	00000000 vfprintf.c
0402bf20 l     F .text	000000f4 __sprint_r.part.0
0402d37c l     F .text	000000c0 __sbprintf
000005fc l     O .rodata	00000010 blanks.1
000005ec l     O .rodata	00000010 zeroes.0
00000000 l    df *ABS*	00000000 assert.c
00000000 l    df *ABS*	00000000 mallocr.c
00000000 l    df *ABS*	00000000 fiprintf.c
00000000 l    df *ABS*	00000000 fputwc.c
00000000 l    df *ABS*	00000000 locale.c
00000000 l    df *ABS*	00000000 mbtowc_r.c
00000000 l    df *ABS*	00000000 vfiprintfr_1.c
00000000 l    df *ABS*	00000000 wcrtomb.c
00000000 l    df *ABS*	00000000 wctomb_r.c
00000000 l    df *ABS*	00000000 abort.c
00000000 l    df *ABS*	00000000 ctype_.c
00000000 l    df *ABS*	00000000 signal.c
00000000 l    df *ABS*	00000000 signalr.c
00000000 l    df *ABS*	00000000 libgcc2.c
00000000 l    df *ABS*	00000000 libgcc2.c
00000000 l    df *ABS*	00000000 adddf3.c
00000000 l    df *ABS*	00000000 divdf3.c
00000000 l    df *ABS*	00000000 eqdf2.c
00000000 l    df *ABS*	00000000 gedf2.c
00000000 l    df *ABS*	00000000 ledf2.c
00000000 l    df *ABS*	00000000 muldf3.c
00000000 l    df *ABS*	00000000 subdf3.c
00000000 l    df *ABS*	00000000 unorddf2.c
00000000 l    df *ABS*	00000000 fixdfsi.c
00000000 l    df *ABS*	00000000 floatsidf.c
00000000 l    df *ABS*	00000000 floatunsidf.c
00000000 l    df *ABS*	00000000 alt_close.c
04030f44 l     F .text	0000003c alt_get_errno
00000000 l    df *ABS*	00000000 alt_dev.c
04031050 l     F .text	0000002c alt_dev_null_write
00000000 l    df *ABS*	00000000 alt_errno.c
00000000 l    df *ABS*	00000000 alt_exit.c
00000000 l    df *ABS*	00000000 alt_fstat.c
040310b4 l     F .text	0000003c alt_get_errno
00000000 l    df *ABS*	00000000 alt_getpid.c
00000000 l    df *ABS*	00000000 alt_irq_register.c
00000000 l    df *ABS*	00000000 alt_irq_vars.c
00000000 l    df *ABS*	00000000 alt_isatty.c
04031340 l     F .text	0000003c alt_get_errno
00000000 l    df *ABS*	00000000 alt_kill.c
04031420 l     F .text	0000003c alt_get_errno
00000000 l    df *ABS*	00000000 alt_load.c
04031588 l     F .text	00000068 alt_load_section
00000000 l    df *ABS*	00000000 alt_lseek.c
04031674 l     F .text	0000003c alt_get_errno
00000000 l    df *ABS*	00000000 alt_main.c
00000000 l    df *ABS*	00000000 alt_malloc_lock.c
00000000 l    df *ABS*	00000000 alt_open.c
04031848 l     F .text	0000003c alt_get_errno
04031884 l     F .text	000000b8 alt_file_locked
00000000 l    df *ABS*	00000000 alt_read.c
04031a90 l     F .text	0000003c alt_get_errno
00000000 l    df *ABS*	00000000 alt_release_fd.c
00000000 l    df *ABS*	00000000 alt_sbrk.c
00002560 l     O .rwdata	00000004 heap_end
00000000 l    df *ABS*	00000000 alt_write.c
04031cd8 l     F .text	0000003c alt_get_errno
00000000 l    df *ABS*	00000000 alt_sys_init.c
04031e0c l     F .text	00000034 alt_dev_reg
000014a4 l     O .rwdata	00001060 jtag_uart
00002504 l     O .rwdata	0000002c accelerometer_spi
00000000 l    df *ABS*	00000000 altera_avalon_jtag_uart_fd.c
00000000 l    df *ABS*	00000000 altera_avalon_jtag_uart_init.c
04032104 l     F .text	00000210 altera_avalon_jtag_uart_irq
04032314 l     F .text	000000a0 altera_avalon_jtag_uart_timeout
00000000 l    df *ABS*	00000000 altera_avalon_jtag_uart_ioctl.c
00000000 l    df *ABS*	00000000 altera_avalon_jtag_uart_read.c
00000000 l    df *ABS*	00000000 altera_avalon_jtag_uart_write.c
00000000 l    df *ABS*	00000000 altera_avalon_timer_sc.c
04032958 l     F .text	00000080 alt_avalon_timer_sc_irq
00000000 l    df *ABS*	00000000 altera_up_avalon_accelerometer_spi.c
00000000 l    df *ABS*	00000000 alt_alarm_start.c
00000000 l    df *ABS*	00000000 alt_dcache_flush_all.c
00000000 l    df *ABS*	00000000 alt_dev_llist_insert.c
04032fa0 l     F .text	0000003c alt_get_errno
00000000 l    df *ABS*	00000000 alt_do_ctors.c
00000000 l    df *ABS*	00000000 alt_do_dtors.c
00000000 l    df *ABS*	00000000 alt_find_dev.c
00000000 l    df *ABS*	00000000 alt_find_file.c
00000000 l    df *ABS*	00000000 alt_get_fd.c
00000000 l    df *ABS*	00000000 alt_icache_flush_all.c
00000000 l    df *ABS*	00000000 alt_io_redirect.c
040333b8 l     F .text	000000b0 alt_open_fd
00000000 l    df *ABS*	00000000 alt_tick.c
00000000 l    df *ABS*	00000000 altera_nios2_gen2_irq.c
00000000 l    df *ABS*	00000000 alt_icache_flush.c
00000000 l    df *ABS*	00000000 atexit.c
00000000 l    df *ABS*	00000000 exit.c
00000000 l    df *ABS*	00000000 memcmp.c
00000000 l    df *ABS*	00000000 __atexit.c
00000000 l    df *ABS*	00000000 __call_atexit.c
04021c14 g     F .text	00000218 requestLoop
000025a0 g     O .bss	00000004 alt_instruction_exception_handler
0402b80c g     F .text	00000070 _mprec_log10
0402b8f8 g     F .text	00000060 __any_on
0402a520 g     F .text	00000058 _isatty_r
000004d4 g     O .rodata	00000028 __mprec_tinytens
04031784 g     F .text	0000007c alt_main
04025a80 g     F .text	000000cc _puts_r
00002758 g     O .bss	00000100 alt_irq
0402a598 g     F .text	00000064 _lseek_r
04020880 g     F .text	00000044 float_to_fixed
04034370 g       *ABS*	00000000 __flash_rwdata_start
04029fb0 g     F .text	000000b8 __sflags
0402fbb0 g     F .text	00000080 .hidden __eqdf2
00002858 g       *ABS*	00000000 __alt_heap_start
040208c4 g     F .text	0000004c fixed_to_float
0402df3c g     F .text	00000060 _kill_r
0402d908 g     F .text	0000006c _wcrtomb_r
0402daac g     F .text	00000098 _signal_r
04025f68 g     F .text	0000005c __sseek
04023c50 g     F .text	00000010 __sinit
040282ec g     F .text	00000148 __swbuf_r
0402d7c0 g     F .text	00000074 _setlocale_r
04023a80 g     F .text	00000068 __sfmoreglue
04031824 g     F .text	00000024 __malloc_unlock
04022ac0 g     F .text	000003f4 .hidden __divsf3
00002570 g     O .bss	00000004 fp
0402a6cc g     F .text	0000012c memmove
04023c3c g     F .text	00000014 _cleanup
0402a7f8 g     F .text	000000a4 _Balloc
04023268 g     F .text	00000070 .hidden __fixsfsi
04021f40 g     F .text	000004b0 sys_timer_isr
0402fc30 g     F .text	000000e8 .hidden __gtdf2
04033690 g     F .text	00000024 altera_nios2_gen2_irq_init
04020000 g     F .entry	0000001c __reset
0402a578 g     F .text	00000008 __localeconv_l
04032ba4 g     F .text	000000d4 alt_up_accelerometer_spi_read_x_axis
04020020 g       *ABS*	00000000 __flash_exceptions_start
040246c8 g     F .text	00000060 _fstat_r
00002574 g     O .bss	00000004 errno
04025db8 g     F .text	0000007c __srget
04025ee0 g     F .text	00000008 __seofread
00002590 g     O .bss	00000004 alt_argv
0000a530 g       *ABS*	00000000 _gp
040311a0 g     F .text	00000020 getpid
00001324 g     O .rwdata	00000180 alt_fd_list
04021e2c g     F .text	00000054 setupAccelerometer
04024b2c g     F .text	0000007c _getc_r
04024ba8 g     F .text	00000090 getc
0403314c g     F .text	00000090 alt_find_dev
04025680 g     F .text	00000100 memcpy
04023904 g     F .text	0000000c _cleanup_r
04030dfc g     F .text	000000b8 .hidden __floatsidf
04033468 g     F .text	0000007c alt_io_redirect
0402fd18 g     F .text	000000e8 .hidden __ltdf2
04033a4c g       *ABS*	00000000 __DTOR_END__
04025b4c g     F .text	00000010 puts
04033744 g     F .text	00000098 alt_exception_cause_generated_bad_addr
04021e80 g     F .text	00000038 setupPeripherals
0402b764 g     F .text	000000a8 __ratio
0402d360 g     F .text	0000001c __vfiprintf_internal
040206f0 g     F .text	00000190 digify
04032510 g     F .text	00000220 altera_avalon_jtag_uart_read
04024e80 g     F .text	00000010 malloc
04022594 g     F .text	00000064 .hidden __udivsi3
0403137c g     F .text	000000a4 isatty
0402db44 g     F .text	000000c4 _raise_r
0402d43c g     F .text	00000064 __assert_func
00000524 g     O .rodata	000000c8 __mprec_tens
040336b4 g     F .text	00000090 alt_icache_flush
00002580 g     O .bss	00000004 __malloc_top_pad
0402df9c g     F .text	00000004 _getpid_r
0402a580 g     F .text	0000000c _localeconv_r
0402ac44 g     F .text	000000b0 __i2b
0402a068 g     F .text	000004b8 __sfvwrite_r
0402dc08 g     F .text	000000bc __sigtramp_r
04020a5c g     F .text	00000144 filt
04025e34 g     F .text	00000058 _sbrk_r
040217dc g     F .text	0000004c writeString
0402b958 g     F .text	00000064 _read_r
00002554 g     O .rwdata	00000004 alt_max_fd
04023510 g     F .text	00000070 _fclose_r
0402197c g     F .text	00000194 print_dec
04023878 g     F .text	00000084 fflush
0000257c g     O .bss	00000004 __malloc_max_sbrked_mem
040311c0 g     F .text	00000180 alt_irq_register
04020604 g     F .text	000000ec bitify
0402ea64 g     F .text	000008f0 .hidden __adddf3
0402123c g     F .text	00000090 readStrInput
0402b4f8 g     F .text	00000108 __b2d
0402e530 g     F .text	00000534 .hidden __umoddi3
040316b0 g     F .text	000000d4 lseek
00002534 g     O .rwdata	00000004 _global_impure_ptr
0402b9bc g     F .text	00000564 _realloc_r
00002858 g       *ABS*	00000000 __bss_end
04033588 g     F .text	00000108 alt_tick
0402dfa0 g     F .text	00000590 .hidden __udivdi3
0402d724 g     F .text	00000024 _fputwc_r
000004fc g     O .rodata	00000028 __mprec_bigtens
0402a9f8 g     F .text	00000138 __s2b
0402da38 g     F .text	00000018 abort
04030eb4 g     F .text	00000090 .hidden __floatunsidf
0402b218 g     F .text	00000058 __mcmp
04023c70 g     F .text	00000014 __fp_lock_all
040334e4 g     F .text	000000a4 alt_alarm_stop
00002588 g     O .bss	00000004 alt_irq_active
040242c8 g     F .text	000003e4 _fseeko_r
040200fc g     F .exceptions	000000cc alt_irq_handler
000012fc g     O .rwdata	00000028 alt_dev_null
040210f8 g     F .text	00000144 readIntInput
04032f54 g     F .text	0000004c alt_dcache_flush_all
0402ab30 g     F .text	00000064 __hi0bits
04030d7c g     F .text	00000080 .hidden __fixdfsi
0402246c g     F .text	00000034 setupTimerLoop
0000256c g       *ABS*	00000000 __ram_rwdata_end
040223f0 g     F .text	0000007c timer_init
0000254c g     O .rwdata	00000008 alt_dev_list
04023dec g     F .text	00000048 _fputc_r
04031d14 g     F .text	000000f8 write
040258d4 g     F .text	000000cc _putc_r
00000924 g       *ABS*	00000000 __ram_rodata_end
040310f0 g     F .text	000000b0 fstat
04023dc8 g     F .text	00000024 fprintf
0403145c g     F .text	0000012c kill
0402fd18 g     F .text	000000e8 .hidden __ledf2
0402af48 g     F .text	00000148 __pow5mult
0402c02c g     F .text	00001334 ___vfiprintf_internal_r
040225f8 g     F .text	0000005c .hidden __umodsi3
00002858 g       *ABS*	00000000 end
04020ddc g     F .text	000000ec readStr
040246ac g     F .text	0000001c fseeko
040242ac g     F .text	0000001c fseek
04032050 g     F .text	000000b4 altera_avalon_jtag_uart_init
040201c8 g     F .exceptions	00000074 alt_instruction_exception_entry
04033a4c g       *ABS*	00000000 __CTOR_LIST__
04000000 g       *ABS*	00000000 __alt_stack_pointer
040329d8 g     F .text	0000007c alt_avalon_timer_sc_init
040233fc g     F .text	00000054 .hidden __clzsi2
04032730 g     F .text	00000228 altera_avalon_jtag_uart_write
04023c60 g     F .text	00000004 __sfp_lock_acquire
0402a5fc g     F .text	000000d0 memchr
0402611c g     F .text	000020f4 ___vfprintf_internal_r
04023fac g     F .text	000002fc _free_r
00000760 g     O .rodata	00000180 _ctype_b
0402d834 g     F .text	0000000c __locale_mb_cur_max
0403392c g     F .text	00000120 __call_exitprocs
04025d44 g     F .text	00000074 __srget_r
0000253c g     O .rwdata	00000004 __malloc_sbrk_base
0402023c g     F .text	0000004c _start
00002598 g     O .bss	00000004 _alt_tick_rate
04024844 g     F .text	00000010 ftello
0402b090 g     F .text	00000188 __lshift
0402031c g     F .text	000002e8 Bet
0000259c g     O .bss	00000004 _alt_nticks
0402dd80 g     F .text	000000a0 signal
04031acc g     F .text	000000fc read
04031e7c g     F .text	00000070 alt_sys_init
04032a90 g     F .text	00000044 alt_up_accelerometer_spi_read_address_register
040232d8 g     F .text	00000124 .hidden __floatsisf
04020910 g     F .text	0000003c fixed_mult
04025870 g     F .text	00000064 _open_r
0403389c g     F .text	00000090 __register_exitproc
0402acf4 g     F .text	00000254 __multiply
040323b4 g     F .text	00000068 altera_avalon_jtag_uart_close
00000924 g       *ABS*	00000000 __ram_rwdata_start
00000000 g       *ABS*	00000000 __ram_rodata_start
00002730 g     O .bss	00000028 __malloc_current_mallinfo
04021bc8 g     F .text	0000004c closeFP
0402b600 g     F .text	00000164 __d2b
04021828 g     F .text	00000154 writeOutput
040212cc g     F .text	0000019c readStrArrayInput
04031eec g     F .text	00000060 altera_avalon_jtag_uart_read_fd
040332e4 g     F .text	000000a0 alt_get_fd
04032c78 g     F .text	000000d4 alt_up_accelerometer_spi_read_y_axis
04028614 g     F .text	00000058 _close_r
04033824 g     F .text	00000078 memcmp
04031fac g     F .text	00000050 altera_avalon_jtag_uart_close_fd
00002858 g       *ABS*	00000000 __alt_stack_base
04031ffc g     F .text	00000054 altera_avalon_jtag_uart_ioctl_fd
04024994 g     F .text	000000c4 _fwrite_r
04021b78 g     F .text	00000050 openFP
04024728 g     F .text	0000011c _ftello_r
040284b0 g     F .text	00000164 __swsetup_r
0402f354 g     F .text	0000085c .hidden __divdf3
04023ae8 g     F .text	00000154 __sfp
0402b87c g     F .text	0000007c __copybits
00000d88 g     O .rwdata	00000408 __malloc_av_
04023c6c g     F .text	00000004 __sinit_lock_release
0402fe00 g     F .text	00000674 .hidden __muldf3
04025e8c g     F .text	00000054 __sread
040331dc g     F .text	00000108 alt_find_file
04032fdc g     F .text	000000a8 alt_dev_llist_insert
04031800 g     F .text	00000024 __malloc_lock
04023da0 g     F .text	00000028 _fprintf_r
04031c20 g     F .text	000000b8 sbrk
04023818 g     F .text	00000060 _fflush_r
0402d4b4 g     F .text	000000b4 _calloc_r
04023d88 g     F .text	00000018 fopen
0000256c g       *ABS*	00000000 __bss_start
000025a4 g     O .bss	00000010 data
04025780 g     F .text	000000f0 memset
04020288 g     F .text	00000094 main
00002594 g     O .bss	00000004 alt_envp
00002578 g     O .bss	00000004 __malloc_max_total_mem
04020cfc g     F .text	000000e0 checkName
04031f4c g     F .text	00000060 altera_avalon_jtag_uart_write_fd
04028434 g     F .text	00000018 __swbuf
04025fc4 g     F .text	00000008 __sclose
04000000 g       *ABS*	00000000 __alt_heap_limit
04023580 g     F .text	00000070 fclose
04028868 g     F .text	00001748 _dtoa_r
04024ea0 g     F .text	000007e0 _malloc_r
0402da08 g     F .text	00000030 __ascii_wctomb
00002558 g     O .rwdata	00000004 alt_errno
0402d568 g     F .text	00000020 _fiprintf_r
0402de20 g     F .text	00000060 _init_signal
04024854 g     F .text	00000098 _fwalk
0402d8b4 g     F .text	0000000c _mbtowc_r
040259a0 g     F .text	000000e0 putc
040224a0 g     F .text	00000080 .hidden __divsi3
04023e90 g     F .text	0000011c _malloc_trim_r
04033a4c g       *ABS*	00000000 __CTOR_END__
04022eb4 g     F .text	000003b4 .hidden __mulsf3
04025fcc g     F .text	000000b8 strcmp
04033a4c g       *ABS*	00000000 __flash_rodata_start
04033a4c g       *ABS*	00000000 __DTOR_LIST__
04021b10 g     F .text	00000068 clear_dec
0402fbb0 g     F .text	00000080 .hidden __nedf2
04031e40 g     F .text	0000003c alt_irq_init
04031bc8 g     F .text	00000058 alt_release_fd
000002c4 g     O .rodata	00000100 .hidden __clz_tab
00002584 g     O .bss	00000004 _PathLocale
040337dc g     F .text	00000014 atexit
0402844c g     F .text	00000064 _write_r
0402d840 g     F .text	00000074 setlocale
04021720 g     F .text	00000070 writeBool
00002538 g     O .rwdata	00000004 _impure_ptr
0000258c g     O .bss	00000004 alt_argc
040235f0 g     F .text	00000228 __sflush_r
040330e8 g     F .text	00000064 _do_dtors
040242a8 g     F .text	00000004 _fseek_r
04025b78 g     F .text	000001cc __srefill_r
04020020 g       .exceptions	00000000 alt_irq_entry
0402d8c0 g     F .text	00000044 __ascii_mbtowc
0402b49c g     F .text	0000005c __ulp
04023c84 g     F .text	00000014 __fp_unlock_all
00002530 g     O .rwdata	00000001 pwm
04023e34 g     F .text	0000005c fputc
00002544 g     O .rwdata	00000008 alt_fs_list
0402094c g     F .text	00000110 quantised_filt
000025e8 g     O .bss	0000001c outputData
04020020 g       *ABS*	00000000 __ram_exceptions_start
00002604 g     O .bss	0000012c filterData
04032a54 g     F .text	0000003c alt_up_accelerometer_spi_open_dev
0402a58c g     F .text	0000000c localeconv
04020000 g       *ABS*	00000000 __alt_mem_onchip_memory2
04024de8 g     F .text	00000098 __swhatbuf_r
04024a58 g     F .text	000000d4 fwrite
0000256c g       *ABS*	00000000 _edata
00002858 g       *ABS*	00000000 _end
0402d5c0 g     F .text	00000164 __fputwc
0402023c g       *ABS*	00000000 __ram_exceptions_end
0403241c g     F .text	000000f4 altera_avalon_jtag_uart_ioctl
04025ee8 g     F .text	00000080 __swrite
00002540 g     O .rwdata	00000004 __malloc_trim_threshold
040337f0 g     F .text	00000034 exit
0402d588 g     F .text	00000038 fiprintf
0402d904 g     F .text	00000004 _vfiprintf_r
040248ec g     F .text	000000a8 _fwalk_reent
0402b270 g     F .text	0000022c __mdiff
04022520 g     F .text	00000074 .hidden __modsi3
04032d4c g     F .text	000000d4 alt_up_accelerometer_spi_read_z_axis
04021790 g     F .text	0000004c writeInt
04000000 g       *ABS*	00000000 __alt_data_end
04020020 g     F .exceptions	00000000 alt_exception
04023c64 g     F .text	00000004 __sfp_lock_release
00000000 g       *ABS*	00000000 __alt_mem_sdram
0000065c g     O .rodata	00000101 _ctype_
04030d28 g     F .text	00000054 .hidden __unorddf2
04023c98 g     F .text	000000f0 _fopen_r
04020c58 g     F .text	000000a4 setupInputData
0403107c g     F .text	00000038 _exit
04032e20 g     F .text	00000134 alt_alarm_start
04032ad4 g     F .text	00000068 alt_up_accelerometer_spi_read
04032b3c g     F .text	00000068 alt_up_accelerometer_spi_write
04024c38 g     F .text	000001b0 __smakebuf_r
04026084 g     F .text	00000098 strlen
00000924 g     O .rwdata	00000040 betData
0402da50 g     F .text	0000005c _init_signal_r
0403193c g     F .text	00000154 open
0402fc30 g     F .text	000000e8 .hidden __gedf2
0402d4a0 g     F .text	00000014 __assert
0402c014 g     F .text	00000018 __sprint_r
04033384 g     F .text	00000034 alt_icache_flush_all
0000255c g     O .rwdata	00000004 alt_priority_mask
04020ba0 g     F .text	000000b8 filterAccelerometer
04028210 g     F .text	0000001c __vfprintf_internal
0402d9fc g     F .text	0000000c _wctomb_r
04030474 g     F .text	000008b4 .hidden __subdf3
04020ec8 g     F .text	00000230 readBoolInput
0402ab94 g     F .text	000000b0 __lo0bits
04021468 g     F .text	000002b8 readInput
00002564 g     O .rwdata	00000008 alt_alarm_list
04033084 g     F .text	00000064 _do_ctors
0402de80 g     F .text	000000bc __sigtramp
0402d974 g     F .text	00000088 wcrtomb
000025b4 g     O .bss	00000034 inputData
04030f80 g     F .text	000000d0 close
04022654 g     F .text	0000046c .hidden __addsf3
00001190 g     O .rwdata	0000016c __global_locale
040315f0 g     F .text	00000084 alt_load
0402d748 g     F .text	00000078 fputwc
0402dcc4 g     F .text	000000bc raise
04024e90 g     F .text	00000010 free
04023c68 g     F .text	00000004 __sinit_lock_acquire
0402a8c0 g     F .text	00000138 __multadd
04021eb8 g     F .text	00000088 shake
0402a89c g     F .text	00000024 _Bfree
0000256c g     O .bss	00000004 dataSrc



Disassembly of section .entry:

04020000 <__reset>:
#if NIOS2_ICACHE_SIZE > 0 && defined(ALT_ALLOW_CODE_AT_RESET) && (!defined(ALT_SIM_OPTIMIZE) || defined(NIOS2_ECC_PRESENT))
    /* Assume the instruction cache size is always a power of two. */
#if NIOS2_ICACHE_SIZE > 0x8000
    movhi r2, %hi(NIOS2_ICACHE_SIZE)
#else
    movui r2, NIOS2_ICACHE_SIZE
 4020000:	00840014 	movui	r2,4096
#endif

0:
    initi r2
 4020004:	1001483a 	initi	r2
    addi r2, r2, -NIOS2_ICACHE_LINE_SIZE
 4020008:	10bff804 	addi	r2,r2,-32
    bgt r2, zero, 0b
 402000c:	00bffd16 	blt	zero,r2,4020004 <__reset+0x4>
 * Jump to the _start entry point in the .text section if reset code
 * is allowed or if optimizing for RTL simulation.
 */
#if defined(ALT_ALLOW_CODE_AT_RESET) || defined(ALT_SIM_OPTIMIZE)
    /* Jump to the _start entry point in the .text section. */
    movhi r1, %hi(_start)
 4020010:	004100b4 	movhi	at,1026
    ori r1, r1, %lo(_start)
 4020014:	08408f14 	ori	at,at,572
    jmp r1
 4020018:	0800683a 	jmp	at
 402001c:	00000000 	call	0 <__alt_mem_sdram>

Disassembly of section .exceptions:

04020020 <alt_exception>:

#else /* ALT_EXCEPTION_STACK disabled */
        /* 
         * Reserve space on normal stack for registers about to be pushed.
         */
        addi  sp, sp, -76
 4020020:	deffed04 	addi	sp,sp,-76
         * documentation for details).
         *
         * Leave a gap in the stack frame at 4(sp) for the muldiv handler to
         * store zero into.
         */
        stw   ra,  0(sp)
 4020024:	dfc00015 	stw	ra,0(sp)
        stw   r1,   8(sp)
 4020028:	d8400215 	stw	at,8(sp)
        stw   r2,  12(sp)
 402002c:	d8800315 	stw	r2,12(sp)
        stw   r3,  16(sp)
 4020030:	d8c00415 	stw	r3,16(sp)
        stw   r4,  20(sp)
 4020034:	d9000515 	stw	r4,20(sp)
        stw   r5,  24(sp)
 4020038:	d9400615 	stw	r5,24(sp)
        stw   r6,  28(sp)
 402003c:	d9800715 	stw	r6,28(sp)
        stw   r7,  32(sp)
 4020040:	d9c00815 	stw	r7,32(sp)
        rdctl r5, estatus   /* Read early to avoid usage stall */
 4020044:	000b307a 	rdctl	r5,estatus
        stw   r8,  36(sp)
 4020048:	da000915 	stw	r8,36(sp)
        stw   r9,  40(sp)
 402004c:	da400a15 	stw	r9,40(sp)
        stw   r10, 44(sp)
 4020050:	da800b15 	stw	r10,44(sp)
        stw   r11, 48(sp)
 4020054:	dac00c15 	stw	r11,48(sp)
        stw   r12, 52(sp)
 4020058:	db000d15 	stw	r12,52(sp)
        stw   r13, 56(sp)
 402005c:	db400e15 	stw	r13,56(sp)
        stw   r14, 60(sp)
 4020060:	db800f15 	stw	r14,60(sp)
        stw   r15, 64(sp)
 4020064:	dbc01015 	stw	r15,64(sp)
        /*
         * ea-4 contains the address of the instruction being executed
         * when the exception occured. For interrupt exceptions, we will
         * will be re-issue the isntruction. Store it in 72(sp)
         */
        stw   r5,  68(sp)  /* estatus */
 4020068:	d9401115 	stw	r5,68(sp)
        addi  r15, ea, -4  /* instruction that caused exception */
 402006c:	ebffff04 	addi	r15,ea,-4
        stw   r15,  72(sp)
 4020070:	dbc01215 	stw	r15,72(sp)
#else
        /*
         * Test to see if the exception was a software exception or caused 
         * by an external interrupt, and vector accordingly.
         */
        rdctl r4, ipending
 4020074:	0009313a 	rdctl	r4,ipending
        andi  r2, r5, 1
 4020078:	2880004c 	andi	r2,r5,1
        beq   r2, zero, .Lnot_irq
 402007c:	10000326 	beq	r2,zero,402008c <alt_exception+0x6c>
        beq   r4, zero, .Lnot_irq
 4020080:	20000226 	beq	r4,zero,402008c <alt_exception+0x6c>
        /*
         * Now that all necessary registers have been preserved, call 
         * alt_irq_handler() to process the interrupts.
         */

        call alt_irq_handler
 4020084:	40200fc0 	call	40200fc <alt_irq_handler>

        .section .exceptions.irqreturn, "xa"

        br    .Lexception_exit
 4020088:	00000706 	br	40200a8 <alt_exception+0x88>
         * upon completion, so we write ea (address of instruction *after*
         * the one where the exception occured) into 72(sp). The actual
         * instruction that caused the exception is written in r2, which these
         * handlers will utilize.
         */
        stw ea, 72(sp) /* EA is PC+4 so will skip over instruction causing exception */
 402008c:	df401215 	stw	ea,72(sp)
.Lunknown_16bit:
        addi.n r4, r4, 2 /* Need PC+2 to skip over instruction causing exception */
        stw r4, 72(sp)

#else /* CDX is not Enabled and all instructions are 32bits */
        ldw r2, -4(ea) /* Instruction value that caused exception */
 4020090:	e8bfff17 	ldw	r2,-4(ea)
         * debugger is present) or go into an infinite loop since the
         * handling behavior is undefined; in that case we will not return here.
         */

        /* Load exception-causing address as first argument (r4) */
        addi   r4, ea, -4
 4020094:	e93fff04 	addi	r4,ea,-4

        /* Call the instruction-exception entry */
        call   alt_instruction_exception_entry
 4020098:	40201c80 	call	40201c8 <alt_instruction_exception_entry>
         * instruction
         *
         * Return code was 0: Skip. The instruction after the exception is
         * already stored in 72(sp).
         */
        bne   r2, r0, .Lexception_exit
 402009c:	1000021e 	bne	r2,zero,40200a8 <alt_exception+0x88>

        /*
         * Otherwise, modify 72(sp) to re-issue the instruction that caused the
         * exception.
         */
        addi  r15, ea, -4  /* instruction that caused exception */
 40200a0:	ebffff04 	addi	r15,ea,-4
        stw   r15,  72(sp)
 40200a4:	dbc01215 	stw	r15,72(sp)
        /* 
         * Restore the saved registers, so that all general purpose registers 
         * have been restored to their state at the time the interrupt occured.
         */

        ldw   r5,  68(sp)
 40200a8:	d9401117 	ldw	r5,68(sp)
        ldw   ea,  72(sp)  /* This becomes the PC once eret is executed */
 40200ac:	df401217 	ldw	ea,72(sp)
        ldw   ra,   0(sp)
 40200b0:	dfc00017 	ldw	ra,0(sp)

        wrctl estatus, r5
 40200b4:	2801707a 	wrctl	estatus,r5

        ldw   r1,   8(sp)
 40200b8:	d8400217 	ldw	at,8(sp)
        ldw   r2,  12(sp)
 40200bc:	d8800317 	ldw	r2,12(sp)
        ldw   r3,  16(sp)
 40200c0:	d8c00417 	ldw	r3,16(sp)
        ldw   r4,  20(sp)
 40200c4:	d9000517 	ldw	r4,20(sp)
        ldw   r5,  24(sp)
 40200c8:	d9400617 	ldw	r5,24(sp)
        ldw   r6,  28(sp)
 40200cc:	d9800717 	ldw	r6,28(sp)
        ldw   r7,  32(sp)
 40200d0:	d9c00817 	ldw	r7,32(sp)

#if defined(ALT_EXCEPTION_STACK) && defined(ALT_STACK_CHECK)
        ldw   et, %gprel(alt_exception_old_stack_limit)(gp)
#endif

        ldw   r8,  36(sp)
 40200d4:	da000917 	ldw	r8,36(sp)
        ldw   r9,  40(sp)
 40200d8:	da400a17 	ldw	r9,40(sp)
        ldw   r10, 44(sp)
 40200dc:	da800b17 	ldw	r10,44(sp)
        ldw   r11, 48(sp)
 40200e0:	dac00c17 	ldw	r11,48(sp)
        ldw   r12, 52(sp)
 40200e4:	db000d17 	ldw	r12,52(sp)
        ldw   r13, 56(sp)
 40200e8:	db400e17 	ldw	r13,56(sp)
        ldw   r14, 60(sp)
 40200ec:	db800f17 	ldw	r14,60(sp)
        ldw   r15, 64(sp)
 40200f0:	dbc01017 	ldw	r15,64(sp)
        stw   et, %gprel(alt_stack_limit_value)(gp)
        stw   zero, %gprel(alt_exception_old_stack_limit)(gp)
#endif /* ALT_STACK_CHECK */
        ldw   sp,  76(sp)
#else /* ALT_EXCEPTION_STACK disabled */
        addi  sp, sp, 76
 40200f4:	dec01304 	addi	sp,sp,76

        /*
         * Return to the interrupted instruction.
         */

        eret
 40200f8:	ef80083a 	eret

040200fc <alt_irq_handler>:
 * instruction is present if the macro ALT_CI_INTERRUPT_VECTOR defined.
 */

void alt_irq_handler (void) __attribute__ ((section (".exceptions")));
void alt_irq_handler (void)
{
 40200fc:	defff904 	addi	sp,sp,-28
 4020100:	dfc00615 	stw	ra,24(sp)
 4020104:	df000515 	stw	fp,20(sp)
 4020108:	df000504 	addi	fp,sp,20
  
  /*
   * Notify the operating system that we are at interrupt level.
   */ 
  
  ALT_OS_INT_ENTER();
 402010c:	0001883a 	nop
#ifndef NIOS2_EIC_PRESENT
static ALT_INLINE alt_u32 ALT_ALWAYS_INLINE alt_irq_pending (void)
{
  alt_u32 active;

  NIOS2_READ_IPENDING (active);
 4020110:	0005313a 	rdctl	r2,ipending
 4020114:	e0bffc15 	stw	r2,-16(fp)

  return active;
 4020118:	e0bffc17 	ldw	r2,-16(fp)
   * Consider the case where the high priority interupt is asserted during
   * the interrupt entry sequence for a lower priority interrupt to see why
   * this is the case.
   */

  active = alt_irq_pending ();
 402011c:	e0bfff15 	stw	r2,-4(fp)

  do
  {
    i = 0;
 4020120:	e03ffd15 	stw	zero,-12(fp)
    mask = 1;
 4020124:	00800044 	movi	r2,1
 4020128:	e0bffe15 	stw	r2,-8(fp)
     * called to clear the interrupt condition.
     */

    do
    {
      if (active & mask)
 402012c:	e0ffff17 	ldw	r3,-4(fp)
 4020130:	e0bffe17 	ldw	r2,-8(fp)
 4020134:	1884703a 	and	r2,r3,r2
 4020138:	10001226 	beq	r2,zero,4020184 <alt_irq_handler+0x88>
      { 
#ifdef ALT_ENHANCED_INTERRUPT_API_PRESENT
        alt_irq[i].handler(alt_irq[i].context); 
#else
        alt_irq[i].handler(alt_irq[i].context, i); 
 402013c:	e0bffd17 	ldw	r2,-12(fp)
 4020140:	100690fa 	slli	r3,r2,3
 4020144:	00800034 	movhi	r2,0
 4020148:	1885883a 	add	r2,r3,r2
 402014c:	10c9d617 	ldw	r3,10072(r2)
 4020150:	e0bffd17 	ldw	r2,-12(fp)
 4020154:	100890fa 	slli	r4,r2,3
 4020158:	00800034 	movhi	r2,0
 402015c:	2085883a 	add	r2,r4,r2
 4020160:	1089d717 	ldw	r2,10076(r2)
 4020164:	e17ffd17 	ldw	r5,-12(fp)
 4020168:	1009883a 	mov	r4,r2
 402016c:	183ee83a 	callr	r3
#endif
        break;
 4020170:	0001883a 	nop
  NIOS2_READ_IPENDING (active);
 4020174:	0005313a 	rdctl	r2,ipending
 4020178:	e0bffb15 	stw	r2,-20(fp)
  return active;
 402017c:	e0bffb17 	ldw	r2,-20(fp)
 4020180:	00000706 	br	40201a0 <alt_irq_handler+0xa4>
      }
      mask <<= 1;
 4020184:	e0bffe17 	ldw	r2,-8(fp)
 4020188:	1085883a 	add	r2,r2,r2
 402018c:	e0bffe15 	stw	r2,-8(fp)
      i++;
 4020190:	e0bffd17 	ldw	r2,-12(fp)
 4020194:	10800044 	addi	r2,r2,1
 4020198:	e0bffd15 	stw	r2,-12(fp)
      if (active & mask)
 402019c:	003fe306 	br	402012c <alt_irq_handler+0x30>

    } while (1);

    active = alt_irq_pending ();
 40201a0:	e0bfff15 	stw	r2,-4(fp)
    
  } while (active);
 40201a4:	e0bfff17 	ldw	r2,-4(fp)
 40201a8:	103fdd1e 	bne	r2,zero,4020120 <alt_irq_handler+0x24>

  /*
   * Notify the operating system that interrupt processing is complete.
   */ 

  ALT_OS_INT_EXIT();
 40201ac:	0001883a 	nop
}
 40201b0:	0001883a 	nop
 40201b4:	e037883a 	mov	sp,fp
 40201b8:	dfc00117 	ldw	ra,4(sp)
 40201bc:	df000017 	ldw	fp,0(sp)
 40201c0:	dec00204 	addi	sp,sp,8
 40201c4:	f800283a 	ret

040201c8 <alt_instruction_exception_entry>:
 * that handler if it has been registered. Absent a handler, it will
 * break break or hang as discussed below.
 */
int 
alt_instruction_exception_entry (alt_u32 exception_pc)
{
 40201c8:	defffb04 	addi	sp,sp,-20
 40201cc:	dfc00415 	stw	ra,16(sp)
 40201d0:	df000315 	stw	fp,12(sp)
 40201d4:	df000304 	addi	fp,sp,12
 40201d8:	e13ffd15 	stw	r4,-12(fp)
 * NIOS2_EXCEPTION_CAUSE_NOT_PRESENT. Your handling routine should
 * check the validity of the cause argument before proceeding.
 */
#ifdef NIOS2_HAS_EXTRA_EXCEPTION_INFO
  /* Get exception cause & "badaddr" */
  NIOS2_READ_EXCEPTION(cause);
 40201dc:	000531fa 	rdctl	r2,exception
 40201e0:	e0bfff15 	stw	r2,-4(fp)
  cause = ( (cause & NIOS2_EXCEPTION_REG_CAUSE_MASK) >>
 40201e4:	e0bfff17 	ldw	r2,-4(fp)
 40201e8:	1004d0ba 	srli	r2,r2,2
 40201ec:	108007cc 	andi	r2,r2,31
 40201f0:	e0bfff15 	stw	r2,-4(fp)
              NIOS2_EXCEPTION_REG_CAUSE_OFST );

  NIOS2_READ_BADADDR(badaddr);
 40201f4:	0005333a 	rdctl	r2,badaddr
 40201f8:	e0bffe15 	stw	r2,-8(fp)
#else
  cause = NIOS2_EXCEPTION_CAUSE_NOT_PRESENT;
  badaddr = 0;
#endif /* NIOS2_HAS_EXTRA_EXCEPTION_INFO */

  if(alt_instruction_exception_handler) {
 40201fc:	d0a01c17 	ldw	r2,-32656(gp)
 4020200:	10000726 	beq	r2,zero,4020220 <alt_instruction_exception_entry+0x58>
     * Call handler. Its return value indicates whether the exception-causing
     * instruction should be re-issued. The code that called us,
     * alt_eceptions_entry.S, will look at this value and adjust the ea
     * register as necessary
     */
    return alt_instruction_exception_handler(cause, exception_pc, badaddr);
 4020204:	d0a01c17 	ldw	r2,-32656(gp)
 4020208:	e0ffff17 	ldw	r3,-4(fp)
 402020c:	e1bffe17 	ldw	r6,-8(fp)
 4020210:	e17ffd17 	ldw	r5,-12(fp)
 4020214:	1809883a 	mov	r4,r3
 4020218:	103ee83a 	callr	r2
 402021c:	00000206 	br	4020228 <alt_instruction_exception_entry+0x60>
   *    (a peripheral which negates its interrupt output before its
   *    interrupt handler has been executed will cause spurious interrupts)
   */
  else {
#ifdef NIOS2_HAS_DEBUG_STUB
    NIOS2_BREAK();
 4020220:	003da03a 	break	0
      ;
#endif /* NIOS2_HAS_DEBUG_STUB */
  }

  /* We should not get here. Remove compiler warning. */
  return NIOS2_EXCEPTION_RETURN_REISSUE_INST;
 4020224:	0005883a 	mov	r2,zero
}
 4020228:	e037883a 	mov	sp,fp
 402022c:	dfc00117 	ldw	ra,4(sp)
 4020230:	df000017 	ldw	fp,0(sp)
 4020234:	dec00204 	addi	sp,sp,8
 4020238:	f800283a 	ret

Disassembly of section .text:

0402023c <_start>:

    /* Assume the data cache size is always a power of two. */
#if NIOS2_DCACHE_SIZE > 0x8000
    movhi r2, %hi(NIOS2_DCACHE_SIZE)
#else
    movui r2, NIOS2_DCACHE_SIZE
 402023c:	00820014 	movui	r2,2048
#endif

0:
    initd 0(r2)
 4020240:	10000033 	initd	0(r2)
#ifdef NIOS2_ECC_PRESENT
    addi r2, r2, -4
#else
    addi r2, r2, -NIOS2_DCACHE_LINE_SIZE
 4020244:	10bff804 	addi	r2,r2,-32
#endif
    bgt r2, zero, 0b
 4020248:	00bffd16 	blt	zero,r2,4020240 <_start+0x4>

    /*
     * Now that the caches are initialized, set up the stack pointer and global pointer.
     * The values provided by the linker are assumed to be correctly aligned.
     */
    movhi sp, %hi(__alt_stack_pointer)
 402024c:	06c10034 	movhi	sp,1024
    ori sp, sp, %lo(__alt_stack_pointer)
 4020250:	dec00014 	ori	sp,sp,0
    movhi gp, %hi(_gp)
 4020254:	06800034 	movhi	gp,0
    ori gp, gp, %lo(_gp)
 4020258:	d6a94c14 	ori	gp,gp,42288
 */
#ifndef ALT_SIM_OPTIMIZE
    /* Log that the BSS is about to be cleared. */
    ALT_LOG_PUTS(alt_log_msg_bss)

    movhi r2, %hi(__bss_start)
 402025c:	00800034 	movhi	r2,0
    ori r2, r2, %lo(__bss_start)
 4020260:	10895b14 	ori	r2,r2,9580

    movhi r3, %hi(__bss_end)
 4020264:	00c00034 	movhi	r3,0
    ori r3, r3, %lo(__bss_end)
 4020268:	18ca1614 	ori	r3,r3,10328

    beq r2, r3, 1f
 402026c:	10c00326 	beq	r2,r3,402027c <_start+0x40>

0:
    stw zero, (r2)
 4020270:	10000015 	stw	zero,0(r2)
    addi r2, r2, 4
 4020274:	10800104 	addi	r2,r2,4
    bltu r2, r3, 0b
 4020278:	10fffd36 	bltu	r2,r3,4020270 <_start+0x34>
     * section aren't defined until alt_load() has been called).
     */
    mov   et, zero
#endif

    call alt_load
 402027c:	40315f00 	call	40315f0 <alt_load>

    /* Log that alt_main is about to be called. */
    ALT_LOG_PUTS(alt_log_msg_alt_main)

    /* Call the C entry point. It should never return. */
    call alt_main
 4020280:	40317840 	call	4031784 <alt_main>

04020284 <alt_after_alt_main>:

    /* Wait in infinite loop in case alt_main does return. */
alt_after_alt_main:
    br alt_after_alt_main
 4020284:	003fff06 	br	4020284 <alt_after_alt_main>

04020288 <main>:
OutputData outputData;
DataSrc dataSrc;



int main(){
 4020288:	defffe04 	addi	sp,sp,-8
 402028c:	dfc00115 	stw	ra,4(sp)
 4020290:	df000015 	stw	fp,0(sp)
 4020294:	d839883a 	mov	fp,sp
	// clearing segments
	clear_dec();
 4020298:	4021b100 	call	4021b10 <clear_dec>

	// setup inputData
	setupInputData();
 402029c:	4020c580 	call	4020c58 <setupInputData>

	// setup peripherals
	if (setupPeripherals()) {
 40202a0:	4021e800 	call	4021e80 <setupPeripherals>
 40202a4:	10000226 	beq	r2,zero,40202b0 <main+0x28>
		return 1;
 40202a8:	00800044 	movi	r2,1
 40202ac:	00001606 	br	4020308 <main+0x80>
	}

	// setup jtag
	if(openFP()){
 40202b0:	4021b780 	call	4021b78 <openFP>
 40202b4:	10000a26 	beq	r2,zero,40202e0 <main+0x58>
		fprintf(stderr, "Unable to access jtag.\n");
 40202b8:	d0a00217 	ldw	r2,-32760(gp)
 40202bc:	10800317 	ldw	r2,12(r2)
 40202c0:	100f883a 	mov	r7,r2
 40202c4:	018005c4 	movi	r6,23
 40202c8:	01400044 	movi	r5,1
 40202cc:	01000034 	movhi	r4,0
 40202d0:	21000004 	addi	r4,r4,0
 40202d4:	4024a580 	call	4024a58 <fwrite>
		return 1;
 40202d8:	00800044 	movi	r2,1
 40202dc:	00000a06 	br	4020308 <main+0x80>
	}

	// setup timer
	setupTimerLoop();
 40202e0:	402246c0 	call	402246c <setupTimerLoop>

	// start main execution
	printf("Running ..\n");
 40202e4:	01000034 	movhi	r4,0
 40202e8:	21000604 	addi	r4,r4,24
 40202ec:	4025b4c0 	call	4025b4c <puts>

	// run request loop
	requestLoop();
 40202f0:	4021c140 	call	4021c14 <requestLoop>

	// close jtag
	closeFP();
 40202f4:	4021bc80 	call	4021bc8 <closeFP>

	printf("Complete\n");
 40202f8:	01000034 	movhi	r4,0
 40202fc:	21000904 	addi	r4,r4,36
 4020300:	4025b4c0 	call	4025b4c <puts>

	return 0;
 4020304:	0005883a 	mov	r2,zero
}
 4020308:	e037883a 	mov	sp,fp
 402030c:	dfc00117 	ldw	ra,4(sp)
 4020310:	df000017 	ldw	fp,0(sp)
 4020314:	dec00204 	addi	sp,sp,8
 4020318:	f800283a 	ret

0402031c <Bet>:

#include "bet.h"
#include "bitify.h"

int Bet(alt_32  *count, int *segvalue, int *maxQ, alt_32 x_value, uint16_t switch_read, uint button_read, int m_digits[], int bet_value[])
{
 402031c:	deffed04 	addi	sp,sp,-76
 4020320:	dfc01215 	stw	ra,72(sp)
 4020324:	df001115 	stw	fp,68(sp)
 4020328:	dc001015 	stw	r16,64(sp)
 402032c:	df001104 	addi	fp,sp,68
 4020330:	e13ff315 	stw	r4,-52(fp)
 4020334:	e17ff215 	stw	r5,-56(fp)
 4020338:	e1bff115 	stw	r6,-60(fp)
 402033c:	e1fff015 	stw	r7,-64(fp)
 4020340:	e0800217 	ldw	r2,8(fp)
 4020344:	e0bfef0d 	sth	r2,-68(fp)
	// Setting up and defining
	int range = 43;
 4020348:	00800ac4 	movi	r2,43
 402034c:	e0bffe15 	stw	r2,-8(fp)
	int min = -25;
 4020350:	00bff9c4 	movi	r2,-25
 4020354:	e0bffd15 	stw	r2,-12(fp)
	int xval = x_value;
 4020358:	e0bff017 	ldw	r2,-64(fp)
 402035c:	e0bffc15 	stw	r2,-16(fp)

	// Digifying switch values
	int s_digits[6];
	bitify(s_digits, switch_read);
 4020360:	e0ffef0b 	ldhu	r3,-68(fp)
 4020364:	e0bff404 	addi	r2,fp,-48
 4020368:	180b883a 	mov	r5,r3
 402036c:	1009883a 	mov	r4,r2
 4020370:	40206040 	call	4020604 <bitify>

	// If switch locked
	if(s_digits[*segvalue] == 1 ){
 4020374:	e0bff217 	ldw	r2,-56(fp)
 4020378:	10800017 	ldw	r2,0(r2)
 402037c:	100490ba 	slli	r2,r2,2
 4020380:	e0ffff04 	addi	r3,fp,-4
 4020384:	1885883a 	add	r2,r3,r2
 4020388:	10bff517 	ldw	r2,-44(r2)
 402038c:	10800058 	cmpnei	r2,r2,1
 4020390:	1000331e 	bne	r2,zero,4020460 <Bet+0x144>
		//printf("locked switch: %d ", *segvalue);
		print_dec(bet_value[*segvalue], *segvalue);
 4020394:	e0bff217 	ldw	r2,-56(fp)
 4020398:	10800017 	ldw	r2,0(r2)
 402039c:	100490ba 	slli	r2,r2,2
 40203a0:	e0c00517 	ldw	r3,20(fp)
 40203a4:	1885883a 	add	r2,r3,r2
 40203a8:	10c00017 	ldw	r3,0(r2)
 40203ac:	e0bff217 	ldw	r2,-56(fp)
 40203b0:	10800017 	ldw	r2,0(r2)
 40203b4:	100b883a 	mov	r5,r2
 40203b8:	1809883a 	mov	r4,r3
 40203bc:	402197c0 	call	402197c <print_dec>
		if(bet_value[*segvalue] != m_digits[*segvalue]){
 40203c0:	e0bff217 	ldw	r2,-56(fp)
 40203c4:	10800017 	ldw	r2,0(r2)
 40203c8:	100490ba 	slli	r2,r2,2
 40203cc:	e0c00517 	ldw	r3,20(fp)
 40203d0:	1885883a 	add	r2,r3,r2
 40203d4:	10c00017 	ldw	r3,0(r2)
 40203d8:	e0bff217 	ldw	r2,-56(fp)
 40203dc:	10800017 	ldw	r2,0(r2)
 40203e0:	100490ba 	slli	r2,r2,2
 40203e4:	e1000417 	ldw	r4,16(fp)
 40203e8:	2085883a 	add	r2,r4,r2
 40203ec:	10800017 	ldw	r2,0(r2)
 40203f0:	18800326 	beq	r3,r2,4020400 <Bet+0xe4>
			*maxQ=1;
 40203f4:	e0bff117 	ldw	r2,-60(fp)
 40203f8:	00c00044 	movi	r3,1
 40203fc:	10c00015 	stw	r3,0(r2)
		}
		//printf(" %d \n", mx);
		if(*segvalue == 0){
 4020400:	e0bff217 	ldw	r2,-56(fp)
 4020404:	10800017 	ldw	r2,0(r2)
 4020408:	1000041e 	bne	r2,zero,402041c <Bet+0x100>
			*segvalue = 5;
 402040c:	e0bff217 	ldw	r2,-56(fp)
 4020410:	00c00144 	movi	r3,5
 4020414:	10c00015 	stw	r3,0(r2)
 4020418:	00005706 	br	4020578 <Bet+0x25c>
		}
		else{
			*segvalue = *segvalue - 1;
 402041c:	e0bff217 	ldw	r2,-56(fp)
 4020420:	10800017 	ldw	r2,0(r2)
 4020424:	10ffffc4 	addi	r3,r2,-1
 4020428:	e0bff217 	ldw	r2,-56(fp)
 402042c:	10c00015 	stw	r3,0(r2)
			if(*maxQ == 1){
 4020430:	e0bff117 	ldw	r2,-60(fp)
 4020434:	10800017 	ldw	r2,0(r2)
 4020438:	10800058 	cmpnei	r2,r2,1
 402043c:	10004e1e 	bne	r2,zero,4020578 <Bet+0x25c>
				m_digits[*segvalue] = 9;
 4020440:	e0bff217 	ldw	r2,-56(fp)
 4020444:	10800017 	ldw	r2,0(r2)
 4020448:	100490ba 	slli	r2,r2,2
 402044c:	e0c00417 	ldw	r3,16(fp)
 4020450:	1885883a 	add	r2,r3,r2
 4020454:	00c00244 	movi	r3,9
 4020458:	10c00015 	stw	r3,0(r2)
 402045c:	00004606 	br	4020578 <Bet+0x25c>
			}
		}
	}
	// If switch unlocked
	else if(s_digits[*segvalue] == 0){
 4020460:	e0bff217 	ldw	r2,-56(fp)
 4020464:	10800017 	ldw	r2,0(r2)
 4020468:	100490ba 	slli	r2,r2,2
 402046c:	e0ffff04 	addi	r3,fp,-4
 4020470:	1885883a 	add	r2,r3,r2
 4020474:	10bff517 	ldw	r2,-44(r2)
 4020478:	10003f1e 	bne	r2,zero,4020578 <Bet+0x25c>
		if(m_digits[*segvalue] == 0){
 402047c:	e0bff217 	ldw	r2,-56(fp)
 4020480:	10800017 	ldw	r2,0(r2)
 4020484:	100490ba 	slli	r2,r2,2
 4020488:	e0c00417 	ldw	r3,16(fp)
 402048c:	1885883a 	add	r2,r3,r2
 4020490:	10800017 	ldw	r2,0(r2)
 4020494:	1000071e 	bne	r2,zero,40204b4 <Bet+0x198>
			bet_value[*segvalue] = 0;
 4020498:	e0bff217 	ldw	r2,-56(fp)
 402049c:	10800017 	ldw	r2,0(r2)
 40204a0:	100490ba 	slli	r2,r2,2
 40204a4:	e0c00517 	ldw	r3,20(fp)
 40204a8:	1885883a 	add	r2,r3,r2
 40204ac:	10000015 	stw	zero,0(r2)
 40204b0:	00002606 	br	402054c <Bet+0x230>
		}
		else{
			int intermedA = ((m_digits[*segvalue]*100)/range) + 1;
 40204b4:	e0bff217 	ldw	r2,-56(fp)
 40204b8:	10800017 	ldw	r2,0(r2)
 40204bc:	100490ba 	slli	r2,r2,2
 40204c0:	e0c00417 	ldw	r3,16(fp)
 40204c4:	1885883a 	add	r2,r3,r2
 40204c8:	10800017 	ldw	r2,0(r2)
 40204cc:	10801924 	muli	r2,r2,100
 40204d0:	e17ffe17 	ldw	r5,-8(fp)
 40204d4:	1009883a 	mov	r4,r2
 40204d8:	40224a00 	call	40224a0 <__divsi3>
 40204dc:	10800044 	addi	r2,r2,1
 40204e0:	e0bffb15 	stw	r2,-20(fp)
			int intermedB = (intermedA*xval) - (intermedA*min);
 40204e4:	e0fffb17 	ldw	r3,-20(fp)
 40204e8:	e0bffc17 	ldw	r2,-16(fp)
 40204ec:	1887383a 	mul	r3,r3,r2
 40204f0:	e13ffb17 	ldw	r4,-20(fp)
 40204f4:	e0bffd17 	ldw	r2,-12(fp)
 40204f8:	2085383a 	mul	r2,r4,r2
 40204fc:	1885c83a 	sub	r2,r3,r2
 4020500:	e0bffa15 	stw	r2,-24(fp)
			bet_value[*segvalue] = m_digits[*segvalue] - (intermedB/100);
 4020504:	e0bff217 	ldw	r2,-56(fp)
 4020508:	10800017 	ldw	r2,0(r2)
 402050c:	100490ba 	slli	r2,r2,2
 4020510:	e0c00417 	ldw	r3,16(fp)
 4020514:	1885883a 	add	r2,r3,r2
 4020518:	14000017 	ldw	r16,0(r2)
 402051c:	e0bffa17 	ldw	r2,-24(fp)
 4020520:	017fe704 	movi	r5,-100
 4020524:	1009883a 	mov	r4,r2
 4020528:	40224a00 	call	40224a0 <__divsi3>
 402052c:	1009883a 	mov	r4,r2
 4020530:	e0bff217 	ldw	r2,-56(fp)
 4020534:	10800017 	ldw	r2,0(r2)
 4020538:	100490ba 	slli	r2,r2,2
 402053c:	e0c00517 	ldw	r3,20(fp)
 4020540:	1885883a 	add	r2,r3,r2
 4020544:	8107883a 	add	r3,r16,r4
 4020548:	10c00015 	stw	r3,0(r2)
		}
		print_dec(bet_value[*segvalue], *segvalue);
 402054c:	e0bff217 	ldw	r2,-56(fp)
 4020550:	10800017 	ldw	r2,0(r2)
 4020554:	100490ba 	slli	r2,r2,2
 4020558:	e0c00517 	ldw	r3,20(fp)
 402055c:	1885883a 	add	r2,r3,r2
 4020560:	10c00017 	ldw	r3,0(r2)
 4020564:	e0bff217 	ldw	r2,-56(fp)
 4020568:	10800017 	ldw	r2,0(r2)
 402056c:	100b883a 	mov	r5,r2
 4020570:	1809883a 	mov	r4,r3
 4020574:	402197c0 	call	402197c <print_dec>
	}

	return ((bet_value[5]*100000)+(bet_value[4]*10000)+(bet_value[3]*1000)+(bet_value[2]*100)+(bet_value[1]*10)+(bet_value[0]));
 4020578:	e0800517 	ldw	r2,20(fp)
 402057c:	10800504 	addi	r2,r2,20
 4020580:	10c00017 	ldw	r3,0(r2)
 4020584:	008000b4 	movhi	r2,2
 4020588:	10a1a804 	addi	r2,r2,-31072
 402058c:	1887383a 	mul	r3,r3,r2
 4020590:	e0800517 	ldw	r2,20(fp)
 4020594:	10800404 	addi	r2,r2,16
 4020598:	10800017 	ldw	r2,0(r2)
 402059c:	1089c424 	muli	r2,r2,10000
 40205a0:	1887883a 	add	r3,r3,r2
 40205a4:	e0800517 	ldw	r2,20(fp)
 40205a8:	10800304 	addi	r2,r2,12
 40205ac:	10800017 	ldw	r2,0(r2)
 40205b0:	1080fa24 	muli	r2,r2,1000
 40205b4:	1887883a 	add	r3,r3,r2
 40205b8:	e0800517 	ldw	r2,20(fp)
 40205bc:	10800204 	addi	r2,r2,8
 40205c0:	10800017 	ldw	r2,0(r2)
 40205c4:	10801924 	muli	r2,r2,100
 40205c8:	1887883a 	add	r3,r3,r2
 40205cc:	e0800517 	ldw	r2,20(fp)
 40205d0:	10800104 	addi	r2,r2,4
 40205d4:	10800017 	ldw	r2,0(r2)
 40205d8:	108002a4 	muli	r2,r2,10
 40205dc:	1887883a 	add	r3,r3,r2
 40205e0:	e0800517 	ldw	r2,20(fp)
 40205e4:	10800017 	ldw	r2,0(r2)
 40205e8:	1885883a 	add	r2,r3,r2
}
 40205ec:	e6ffff04 	addi	sp,fp,-4
 40205f0:	dfc00217 	ldw	ra,8(sp)
 40205f4:	df000117 	ldw	fp,4(sp)
 40205f8:	dc000017 	ldw	r16,0(sp)
 40205fc:	dec00304 	addi	sp,sp,12
 4020600:	f800283a 	ret

04020604 <bitify>:
 */

#include "bitify.h"

void bitify(int bits[], uint16_t num )
{
 4020604:	defffd04 	addi	sp,sp,-12
 4020608:	df000215 	stw	fp,8(sp)
 402060c:	df000204 	addi	fp,sp,8
 4020610:	e13fff15 	stw	r4,-4(fp)
 4020614:	2805883a 	mov	r2,r5
 4020618:	e0bffe0d 	sth	r2,-8(fp)
	bits[0] = num & 0b0000000001;
 402061c:	e0bffe0b 	ldhu	r2,-8(fp)
 4020620:	10c0004c 	andi	r3,r2,1
 4020624:	e0bfff17 	ldw	r2,-4(fp)
 4020628:	10c00015 	stw	r3,0(r2)
	bits[1] = (num & 0b0000000010)/2;
 402062c:	e0bffe0b 	ldhu	r2,-8(fp)
 4020630:	1080008c 	andi	r2,r2,2
 4020634:	e0ffff17 	ldw	r3,-4(fp)
 4020638:	18c00104 	addi	r3,r3,4
 402063c:	1008d7fa 	srli	r4,r2,31
 4020640:	2085883a 	add	r2,r4,r2
 4020644:	1005d07a 	srai	r2,r2,1
 4020648:	18800015 	stw	r2,0(r3)
	bits[2] = (num & 0b0000000100)/4;
 402064c:	e0bffe0b 	ldhu	r2,-8(fp)
 4020650:	1100010c 	andi	r4,r2,4
 4020654:	e0bfff17 	ldw	r2,-4(fp)
 4020658:	10c00204 	addi	r3,r2,8
 402065c:	2005883a 	mov	r2,r4
 4020660:	1000010e 	bge	r2,zero,4020668 <bitify+0x64>
 4020664:	108000c4 	addi	r2,r2,3
 4020668:	1005d0ba 	srai	r2,r2,2
 402066c:	18800015 	stw	r2,0(r3)
	bits[3] = (num & 0b0000001000)/8;
 4020670:	e0bffe0b 	ldhu	r2,-8(fp)
 4020674:	1100020c 	andi	r4,r2,8
 4020678:	e0bfff17 	ldw	r2,-4(fp)
 402067c:	10c00304 	addi	r3,r2,12
 4020680:	2005883a 	mov	r2,r4
 4020684:	1000010e 	bge	r2,zero,402068c <bitify+0x88>
 4020688:	108001c4 	addi	r2,r2,7
 402068c:	1005d0fa 	srai	r2,r2,3
 4020690:	18800015 	stw	r2,0(r3)
	bits[4] = (num & 0b0000010000)/16;
 4020694:	e0bffe0b 	ldhu	r2,-8(fp)
 4020698:	1100040c 	andi	r4,r2,16
 402069c:	e0bfff17 	ldw	r2,-4(fp)
 40206a0:	10c00404 	addi	r3,r2,16
 40206a4:	2005883a 	mov	r2,r4
 40206a8:	1000010e 	bge	r2,zero,40206b0 <bitify+0xac>
 40206ac:	108003c4 	addi	r2,r2,15
 40206b0:	1005d13a 	srai	r2,r2,4
 40206b4:	18800015 	stw	r2,0(r3)
	bits[5] = (num & 0b0000100000)/32;
 40206b8:	e0bffe0b 	ldhu	r2,-8(fp)
 40206bc:	1100080c 	andi	r4,r2,32
 40206c0:	e0bfff17 	ldw	r2,-4(fp)
 40206c4:	10c00504 	addi	r3,r2,20
 40206c8:	2005883a 	mov	r2,r4
 40206cc:	1000010e 	bge	r2,zero,40206d4 <bitify+0xd0>
 40206d0:	108007c4 	addi	r2,r2,31
 40206d4:	1005d17a 	srai	r2,r2,5
 40206d8:	18800015 	stw	r2,0(r3)

}
 40206dc:	0001883a 	nop
 40206e0:	e037883a 	mov	sp,fp
 40206e4:	df000017 	ldw	fp,0(sp)
 40206e8:	dec00104 	addi	sp,sp,4
 40206ec:	f800283a 	ret

040206f0 <digify>:
 */

#include "digify.h"

void digify(int digs[], int num )
{
 40206f0:	defffa04 	addi	sp,sp,-24
 40206f4:	dfc00515 	stw	ra,20(sp)
 40206f8:	df000415 	stw	fp,16(sp)
 40206fc:	dc000315 	stw	r16,12(sp)
 4020700:	df000404 	addi	fp,sp,16
 4020704:	e13ffd15 	stw	r4,-12(fp)
 4020708:	e17ffc15 	stw	r5,-16(fp)
	 int getrid;
	 digs[5] = num/100000;
 402070c:	e0bffd17 	ldw	r2,-12(fp)
 4020710:	14000504 	addi	r16,r2,20
 4020714:	e0bffc17 	ldw	r2,-16(fp)
 4020718:	014000b4 	movhi	r5,2
 402071c:	2961a804 	addi	r5,r5,-31072
 4020720:	1009883a 	mov	r4,r2
 4020724:	40224a00 	call	40224a0 <__divsi3>
 4020728:	80800015 	stw	r2,0(r16)
	 getrid = (digs[5]*10);
 402072c:	e0bffd17 	ldw	r2,-12(fp)
 4020730:	10800504 	addi	r2,r2,20
 4020734:	10800017 	ldw	r2,0(r2)
 4020738:	108002a4 	muli	r2,r2,10
 402073c:	e0bffe15 	stw	r2,-8(fp)
	 digs[4] = num/10000 - getrid;
 4020740:	e0bffc17 	ldw	r2,-16(fp)
 4020744:	0149c404 	movi	r5,10000
 4020748:	1009883a 	mov	r4,r2
 402074c:	40224a00 	call	40224a0 <__divsi3>
 4020750:	1009883a 	mov	r4,r2
 4020754:	e0bffd17 	ldw	r2,-12(fp)
 4020758:	10800404 	addi	r2,r2,16
 402075c:	e0fffe17 	ldw	r3,-8(fp)
 4020760:	20c7c83a 	sub	r3,r4,r3
 4020764:	10c00015 	stw	r3,0(r2)
	 getrid = (getrid*10) + (digs[4]*10);
 4020768:	e0bffd17 	ldw	r2,-12(fp)
 402076c:	10800404 	addi	r2,r2,16
 4020770:	10c00017 	ldw	r3,0(r2)
 4020774:	e0bffe17 	ldw	r2,-8(fp)
 4020778:	1885883a 	add	r2,r3,r2
 402077c:	108002a4 	muli	r2,r2,10
 4020780:	e0bffe15 	stw	r2,-8(fp)
	 digs[3] = num/1000  - getrid;
 4020784:	e0bffc17 	ldw	r2,-16(fp)
 4020788:	0140fa04 	movi	r5,1000
 402078c:	1009883a 	mov	r4,r2
 4020790:	40224a00 	call	40224a0 <__divsi3>
 4020794:	1009883a 	mov	r4,r2
 4020798:	e0bffd17 	ldw	r2,-12(fp)
 402079c:	10800304 	addi	r2,r2,12
 40207a0:	e0fffe17 	ldw	r3,-8(fp)
 40207a4:	20c7c83a 	sub	r3,r4,r3
 40207a8:	10c00015 	stw	r3,0(r2)
	 getrid = (getrid*10) + (digs[3]*10);
 40207ac:	e0bffd17 	ldw	r2,-12(fp)
 40207b0:	10800304 	addi	r2,r2,12
 40207b4:	10c00017 	ldw	r3,0(r2)
 40207b8:	e0bffe17 	ldw	r2,-8(fp)
 40207bc:	1885883a 	add	r2,r3,r2
 40207c0:	108002a4 	muli	r2,r2,10
 40207c4:	e0bffe15 	stw	r2,-8(fp)
	 digs[2] = num/100 - getrid;
 40207c8:	e0bffc17 	ldw	r2,-16(fp)
 40207cc:	01401904 	movi	r5,100
 40207d0:	1009883a 	mov	r4,r2
 40207d4:	40224a00 	call	40224a0 <__divsi3>
 40207d8:	1009883a 	mov	r4,r2
 40207dc:	e0bffd17 	ldw	r2,-12(fp)
 40207e0:	10800204 	addi	r2,r2,8
 40207e4:	e0fffe17 	ldw	r3,-8(fp)
 40207e8:	20c7c83a 	sub	r3,r4,r3
 40207ec:	10c00015 	stw	r3,0(r2)
	 getrid = (getrid*10) + (digs[2]*10);
 40207f0:	e0bffd17 	ldw	r2,-12(fp)
 40207f4:	10800204 	addi	r2,r2,8
 40207f8:	10c00017 	ldw	r3,0(r2)
 40207fc:	e0bffe17 	ldw	r2,-8(fp)
 4020800:	1885883a 	add	r2,r3,r2
 4020804:	108002a4 	muli	r2,r2,10
 4020808:	e0bffe15 	stw	r2,-8(fp)
	 digs[1] = num/10 - getrid;
 402080c:	e0bffc17 	ldw	r2,-16(fp)
 4020810:	01400284 	movi	r5,10
 4020814:	1009883a 	mov	r4,r2
 4020818:	40224a00 	call	40224a0 <__divsi3>
 402081c:	1009883a 	mov	r4,r2
 4020820:	e0bffd17 	ldw	r2,-12(fp)
 4020824:	10800104 	addi	r2,r2,4
 4020828:	e0fffe17 	ldw	r3,-8(fp)
 402082c:	20c7c83a 	sub	r3,r4,r3
 4020830:	10c00015 	stw	r3,0(r2)
	 getrid = (getrid*10) + (digs[1]*10);
 4020834:	e0bffd17 	ldw	r2,-12(fp)
 4020838:	10800104 	addi	r2,r2,4
 402083c:	10c00017 	ldw	r3,0(r2)
 4020840:	e0bffe17 	ldw	r2,-8(fp)
 4020844:	1885883a 	add	r2,r3,r2
 4020848:	108002a4 	muli	r2,r2,10
 402084c:	e0bffe15 	stw	r2,-8(fp)
	 digs[0] = num - getrid;
 4020850:	e0fffc17 	ldw	r3,-16(fp)
 4020854:	e0bffe17 	ldw	r2,-8(fp)
 4020858:	1887c83a 	sub	r3,r3,r2
 402085c:	e0bffd17 	ldw	r2,-12(fp)
 4020860:	10c00015 	stw	r3,0(r2)
}
 4020864:	0001883a 	nop
 4020868:	e6ffff04 	addi	sp,fp,-4
 402086c:	dfc00217 	ldw	ra,8(sp)
 4020870:	df000117 	ldw	fp,4(sp)
 4020874:	dc000017 	ldw	r16,0(sp)
 4020878:	dec00304 	addi	sp,sp,12
 402087c:	f800283a 	ret

04020880 <float_to_fixed>:
 */
#include "filter.h"


int float_to_fixed(float input)
{
 4020880:	defffd04 	addi	sp,sp,-12
 4020884:	dfc00215 	stw	ra,8(sp)
 4020888:	df000115 	stw	fp,4(sp)
 402088c:	df000104 	addi	fp,sp,4
 4020890:	e13fff15 	stw	r4,-4(fp)
		return (int) (input * (1 << 8));
 4020894:	0150e034 	movhi	r5,17280
 4020898:	e13fff17 	ldw	r4,-4(fp)
 402089c:	4022eb40 	call	4022eb4 <__mulsf3>
 40208a0:	1007883a 	mov	r3,r2
 40208a4:	1805883a 	mov	r2,r3
 40208a8:	1009883a 	mov	r4,r2
 40208ac:	40232680 	call	4023268 <__fixsfsi>
}
 40208b0:	e037883a 	mov	sp,fp
 40208b4:	dfc00117 	ldw	ra,4(sp)
 40208b8:	df000017 	ldw	fp,0(sp)
 40208bc:	dec00204 	addi	sp,sp,8
 40208c0:	f800283a 	ret

040208c4 <fixed_to_float>:

float fixed_to_float(int input)
{
 40208c4:	defffd04 	addi	sp,sp,-12
 40208c8:	dfc00215 	stw	ra,8(sp)
 40208cc:	df000115 	stw	fp,4(sp)
 40208d0:	df000104 	addi	fp,sp,4
 40208d4:	e13fff15 	stw	r4,-4(fp)
	return ((float)input / (float) (1 << 8));
 40208d8:	e13fff17 	ldw	r4,-4(fp)
 40208dc:	40232d80 	call	40232d8 <__floatsisf>
 40208e0:	1007883a 	mov	r3,r2
 40208e4:	0150e034 	movhi	r5,17280
 40208e8:	1809883a 	mov	r4,r3
 40208ec:	4022ac00 	call	4022ac0 <__divsf3>
 40208f0:	1007883a 	mov	r3,r2
 40208f4:	1809883a 	mov	r4,r3
 40208f8:	2005883a 	mov	r2,r4
}
 40208fc:	e037883a 	mov	sp,fp
 4020900:	dfc00117 	ldw	ra,4(sp)
 4020904:	df000017 	ldw	fp,0(sp)
 4020908:	dec00204 	addi	sp,sp,8
 402090c:	f800283a 	ret

04020910 <fixed_mult>:

int fixed_mult(int x, int y)
{
 4020910:	defffd04 	addi	sp,sp,-12
 4020914:	df000215 	stw	fp,8(sp)
 4020918:	df000204 	addi	fp,sp,8
 402091c:	e13fff15 	stw	r4,-4(fp)
 4020920:	e17ffe15 	stw	r5,-8(fp)
	return (x * y) / (1 << 4);
 4020924:	e0ffff17 	ldw	r3,-4(fp)
 4020928:	e0bffe17 	ldw	r2,-8(fp)
 402092c:	1885383a 	mul	r2,r3,r2
 4020930:	1000010e 	bge	r2,zero,4020938 <fixed_mult+0x28>
 4020934:	108003c4 	addi	r2,r2,15
 4020938:	1005d13a 	srai	r2,r2,4
}
 402093c:	e037883a 	mov	sp,fp
 4020940:	df000017 	ldw	fp,0(sp)
 4020944:	dec00104 	addi	sp,sp,4
 4020948:	f800283a 	ret

0402094c <quantised_filt>:

void quantised_filt(int coef[], int buffer[], int x_read, int * quantised, int N)
{
 402094c:	defff704 	addi	sp,sp,-36
 4020950:	dfc00815 	stw	ra,32(sp)
 4020954:	df000715 	stw	fp,28(sp)
 4020958:	df000704 	addi	fp,sp,28
 402095c:	e13ffc15 	stw	r4,-16(fp)
 4020960:	e17ffb15 	stw	r5,-20(fp)
 4020964:	e1bffa15 	stw	r6,-24(fp)
 4020968:	e1fff915 	stw	r7,-28(fp)
	int intermediate = 0;
 402096c:	e03fff15 	stw	zero,-4(fp)

	for(int i=(N-1); i>0; i--)
 4020970:	e0800217 	ldw	r2,8(fp)
 4020974:	10bfffc4 	addi	r2,r2,-1
 4020978:	e0bffe15 	stw	r2,-8(fp)
 402097c:	00001006 	br	40209c0 <quantised_filt+0x74>
	        {  buffer[i] = buffer[i-1];  }
 4020980:	e0fffe17 	ldw	r3,-8(fp)
 4020984:	00900034 	movhi	r2,16384
 4020988:	10bfffc4 	addi	r2,r2,-1
 402098c:	1885883a 	add	r2,r3,r2
 4020990:	100490ba 	slli	r2,r2,2
 4020994:	e0fffb17 	ldw	r3,-20(fp)
 4020998:	1887883a 	add	r3,r3,r2
 402099c:	e0bffe17 	ldw	r2,-8(fp)
 40209a0:	100490ba 	slli	r2,r2,2
 40209a4:	e13ffb17 	ldw	r4,-20(fp)
 40209a8:	2085883a 	add	r2,r4,r2
 40209ac:	18c00017 	ldw	r3,0(r3)
 40209b0:	10c00015 	stw	r3,0(r2)
	for(int i=(N-1); i>0; i--)
 40209b4:	e0bffe17 	ldw	r2,-8(fp)
 40209b8:	10bfffc4 	addi	r2,r2,-1
 40209bc:	e0bffe15 	stw	r2,-8(fp)
 40209c0:	e0bffe17 	ldw	r2,-8(fp)
 40209c4:	00bfee16 	blt	zero,r2,4020980 <quantised_filt+0x34>
	        buffer[0] = x_read;
 40209c8:	e0bffb17 	ldw	r2,-20(fp)
 40209cc:	e0fffa17 	ldw	r3,-24(fp)
 40209d0:	10c00015 	stw	r3,0(r2)
	for(int i=0; i<(N-1); i++)
 40209d4:	e03ffd15 	stw	zero,-12(fp)
 40209d8:	00001306 	br	4020a28 <quantised_filt+0xdc>
			{ intermediate = intermediate + (fixed_mult(buffer[i], coef[i]));
 40209dc:	e0bffd17 	ldw	r2,-12(fp)
 40209e0:	100490ba 	slli	r2,r2,2
 40209e4:	e0fffb17 	ldw	r3,-20(fp)
 40209e8:	1885883a 	add	r2,r3,r2
 40209ec:	11000017 	ldw	r4,0(r2)
 40209f0:	e0bffd17 	ldw	r2,-12(fp)
 40209f4:	100490ba 	slli	r2,r2,2
 40209f8:	e0fffc17 	ldw	r3,-16(fp)
 40209fc:	1885883a 	add	r2,r3,r2
 4020a00:	10800017 	ldw	r2,0(r2)
 4020a04:	100b883a 	mov	r5,r2
 4020a08:	40209100 	call	4020910 <fixed_mult>
 4020a0c:	1007883a 	mov	r3,r2
 4020a10:	e0bfff17 	ldw	r2,-4(fp)
 4020a14:	10c5883a 	add	r2,r2,r3
 4020a18:	e0bfff15 	stw	r2,-4(fp)
	for(int i=0; i<(N-1); i++)
 4020a1c:	e0bffd17 	ldw	r2,-12(fp)
 4020a20:	10800044 	addi	r2,r2,1
 4020a24:	e0bffd15 	stw	r2,-12(fp)
 4020a28:	e0800217 	ldw	r2,8(fp)
 4020a2c:	10bfffc4 	addi	r2,r2,-1
 4020a30:	e0fffd17 	ldw	r3,-12(fp)
 4020a34:	18bfe916 	blt	r3,r2,40209dc <quantised_filt+0x90>
			//printf("QUAN: i: %d  buf: %d   coef: %d   inter: %d\n", i, buffer[i], coef[i], intermediate);
			}
			//printf("\n qfilt: %d  unq: %d\n", intermediate, (int)fixed_to_float(intermediate));
	*quantised = intermediate;
 4020a38:	e0bff917 	ldw	r2,-28(fp)
 4020a3c:	e0ffff17 	ldw	r3,-4(fp)
 4020a40:	10c00015 	stw	r3,0(r2)

}
 4020a44:	0001883a 	nop
 4020a48:	e037883a 	mov	sp,fp
 4020a4c:	dfc00117 	ldw	ra,4(sp)
 4020a50:	df000017 	ldw	fp,0(sp)
 4020a54:	dec00204 	addi	sp,sp,8
 4020a58:	f800283a 	ret

04020a5c <filt>:

void filt(float buffer[], int x_read, float * filtered, int N)
{
 4020a5c:	deffdf04 	addi	sp,sp,-132
 4020a60:	dfc02015 	stw	ra,128(sp)
 4020a64:	df001f15 	stw	fp,124(sp)
 4020a68:	df001f04 	addi	fp,sp,124
 4020a6c:	e13fe415 	stw	r4,-112(fp)
 4020a70:	e17fe315 	stw	r5,-116(fp)
 4020a74:	e1bfe215 	stw	r6,-120(fp)
 4020a78:	e1ffe115 	stw	r7,-124(fp)
	float coef[24] = {0.00464135470656760, 0.00737747226463043, -0.00240768675012549, -0.00711018685736960, 0.00326564674118811, 6.11463173516297e-05, -0.00935761974859676, 0.00397493281996669, 0.00437887161977042, -0.0133160721439149, 0.00304771783859210, 0.0114361953193935, -0.0179286984033957, -0.00107408161324030, 0.0222597890359562, -0.0224772654507762, -0.0108744542661829, 0.0395972756447093, -0.0263221720611839, -0.0337570326573828, 0.0751987217099385, -0.0288978194901786, -0.120354853218164, 0.287921968939103};
 4020a7c:	e0ffe504 	addi	r3,fp,-108
 4020a80:	00800034 	movhi	r2,0
 4020a84:	10800c04 	addi	r2,r2,48
 4020a88:	01001804 	movi	r4,96
 4020a8c:	200d883a 	mov	r6,r4
 4020a90:	100b883a 	mov	r5,r2
 4020a94:	1809883a 	mov	r4,r3
 4020a98:	40256800 	call	4025680 <memcpy>
	float intermediate=0;
 4020a9c:	e03fff15 	stw	zero,-4(fp)
	for(int i=(N-1); i>0; i--)
 4020aa0:	e0bfe117 	ldw	r2,-124(fp)
 4020aa4:	10bfffc4 	addi	r2,r2,-1
 4020aa8:	e0bffe15 	stw	r2,-8(fp)
 4020aac:	00001006 	br	4020af0 <filt+0x94>
	        {  buffer[i] = buffer[i-1];  }
 4020ab0:	e0fffe17 	ldw	r3,-8(fp)
 4020ab4:	00900034 	movhi	r2,16384
 4020ab8:	10bfffc4 	addi	r2,r2,-1
 4020abc:	1885883a 	add	r2,r3,r2
 4020ac0:	100490ba 	slli	r2,r2,2
 4020ac4:	e0ffe417 	ldw	r3,-112(fp)
 4020ac8:	1889883a 	add	r4,r3,r2
 4020acc:	e0bffe17 	ldw	r2,-8(fp)
 4020ad0:	100490ba 	slli	r2,r2,2
 4020ad4:	e0ffe417 	ldw	r3,-112(fp)
 4020ad8:	1885883a 	add	r2,r3,r2
 4020adc:	20c00017 	ldw	r3,0(r4)
 4020ae0:	10c00015 	stw	r3,0(r2)
	for(int i=(N-1); i>0; i--)
 4020ae4:	e0bffe17 	ldw	r2,-8(fp)
 4020ae8:	10bfffc4 	addi	r2,r2,-1
 4020aec:	e0bffe15 	stw	r2,-8(fp)
 4020af0:	e0bffe17 	ldw	r2,-8(fp)
 4020af4:	00bfee16 	blt	zero,r2,4020ab0 <filt+0x54>
	        buffer[0] = (float)x_read;
 4020af8:	e13fe317 	ldw	r4,-116(fp)
 4020afc:	40232d80 	call	40232d8 <__floatsisf>
 4020b00:	1007883a 	mov	r3,r2
 4020b04:	e0bfe417 	ldw	r2,-112(fp)
 4020b08:	10c00015 	stw	r3,0(r2)
	for(int i=0; i<(N-1); i++)
 4020b0c:	e03ffd15 	stw	zero,-12(fp)
 4020b10:	00001606 	br	4020b6c <filt+0x110>
			{ intermediate = intermediate + (buffer[i]*coef[i]);
 4020b14:	e0bffd17 	ldw	r2,-12(fp)
 4020b18:	100490ba 	slli	r2,r2,2
 4020b1c:	e0ffe417 	ldw	r3,-112(fp)
 4020b20:	1885883a 	add	r2,r3,r2
 4020b24:	10c00017 	ldw	r3,0(r2)
 4020b28:	e0bffd17 	ldw	r2,-12(fp)
 4020b2c:	100490ba 	slli	r2,r2,2
 4020b30:	e085883a 	add	r2,fp,r2
 4020b34:	113fe517 	ldw	r4,-108(r2)
 4020b38:	200b883a 	mov	r5,r4
 4020b3c:	1809883a 	mov	r4,r3
 4020b40:	4022eb40 	call	4022eb4 <__mulsf3>
 4020b44:	1007883a 	mov	r3,r2
 4020b48:	1805883a 	mov	r2,r3
 4020b4c:	100b883a 	mov	r5,r2
 4020b50:	e13fff17 	ldw	r4,-4(fp)
 4020b54:	40226540 	call	4022654 <__addsf3>
 4020b58:	1007883a 	mov	r3,r2
 4020b5c:	e0ffff15 	stw	r3,-4(fp)
	for(int i=0; i<(N-1); i++)
 4020b60:	e0bffd17 	ldw	r2,-12(fp)
 4020b64:	10800044 	addi	r2,r2,1
 4020b68:	e0bffd15 	stw	r2,-12(fp)
 4020b6c:	e0bfe117 	ldw	r2,-124(fp)
 4020b70:	10bfffc4 	addi	r2,r2,-1
 4020b74:	e0fffd17 	ldw	r3,-12(fp)
 4020b78:	18bfe616 	blt	r3,r2,4020b14 <filt+0xb8>
			//printf("FILT: i: %d  buf: %d   coef: %d   inter: %d\n", i, (int)buffer[i], (int)coef[i], (int)intermediate);
			}
			//printf("\nfilt: %d\n", (int)intermediate);
	*filtered = intermediate;
 4020b7c:	e0bfe217 	ldw	r2,-120(fp)
 4020b80:	e0ffff17 	ldw	r3,-4(fp)
 4020b84:	10c00015 	stw	r3,0(r2)

}
 4020b88:	0001883a 	nop
 4020b8c:	e037883a 	mov	sp,fp
 4020b90:	dfc00117 	ldw	ra,4(sp)
 4020b94:	df000017 	ldw	fp,0(sp)
 4020b98:	dec00204 	addi	sp,sp,8
 4020b9c:	f800283a 	ret

04020ba0 <filterAccelerometer>:

void filterAccelerometer(FilterData* src){
 4020ba0:	defffd04 	addi	sp,sp,-12
 4020ba4:	dfc00215 	stw	ra,8(sp)
 4020ba8:	df000115 	stw	fp,4(sp)
 4020bac:	df000104 	addi	fp,sp,4
 4020bb0:	e13fff15 	stw	r4,-4(fp)
	//Filtering x-axis values
	filt(src->xbuffer, data.acc_x_read, &src->xfiltered, 24);
 4020bb4:	e0ffff17 	ldw	r3,-4(fp)
 4020bb8:	00800034 	movhi	r2,0
 4020bbc:	10896917 	ldw	r2,9636(r2)
 4020bc0:	1009883a 	mov	r4,r2
 4020bc4:	e0bfff17 	ldw	r2,-4(fp)
 4020bc8:	10801804 	addi	r2,r2,96
 4020bcc:	01c00604 	movi	r7,24
 4020bd0:	100d883a 	mov	r6,r2
 4020bd4:	200b883a 	mov	r5,r4
 4020bd8:	1809883a 	mov	r4,r3
 4020bdc:	4020a5c0 	call	4020a5c <filt>
	//Filtering x-axis values
	filt(src->ybuffer, data.acc_y_read, &src->yfiltered, 24);
 4020be0:	e0bfff17 	ldw	r2,-4(fp)
 4020be4:	10c01904 	addi	r3,r2,100
 4020be8:	00800034 	movhi	r2,0
 4020bec:	10896a17 	ldw	r2,9640(r2)
 4020bf0:	1009883a 	mov	r4,r2
 4020bf4:	e0bfff17 	ldw	r2,-4(fp)
 4020bf8:	10803104 	addi	r2,r2,196
 4020bfc:	01c00604 	movi	r7,24
 4020c00:	100d883a 	mov	r6,r2
 4020c04:	200b883a 	mov	r5,r4
 4020c08:	1809883a 	mov	r4,r3
 4020c0c:	4020a5c0 	call	4020a5c <filt>
	//Filtering x-axis values
	filt(src->zbuffer, data.acc_z_read, &src->zfiltered, 24);
 4020c10:	e0bfff17 	ldw	r2,-4(fp)
 4020c14:	10c03204 	addi	r3,r2,200
 4020c18:	00800034 	movhi	r2,0
 4020c1c:	10896b17 	ldw	r2,9644(r2)
 4020c20:	1009883a 	mov	r4,r2
 4020c24:	e0bfff17 	ldw	r2,-4(fp)
 4020c28:	10804a04 	addi	r2,r2,296
 4020c2c:	01c00604 	movi	r7,24
 4020c30:	100d883a 	mov	r6,r2
 4020c34:	200b883a 	mov	r5,r4
 4020c38:	1809883a 	mov	r4,r3
 4020c3c:	4020a5c0 	call	4020a5c <filt>
}
 4020c40:	0001883a 	nop
 4020c44:	e037883a 	mov	sp,fp
 4020c48:	dfc00117 	ldw	ra,4(sp)
 4020c4c:	df000017 	ldw	fp,0(sp)
 4020c50:	dec00204 	addi	sp,sp,8
 4020c54:	f800283a 	ret

04020c58 <setupInputData>:
 *      Author: IBricchi
 */

#include "jsonDecode.h"

void setupInputData(){
 4020c58:	defffa04 	addi	sp,sp,-24
 4020c5c:	dfc00515 	stw	ra,20(sp)
 4020c60:	df000415 	stw	fp,16(sp)
 4020c64:	dc000315 	stw	r16,12(sp)
 4020c68:	df000404 	addi	fp,sp,16
	int a_length = 5;
 4020c6c:	00800144 	movi	r2,5
 4020c70:	e0bffd15 	stw	r2,-12(fp)
	int w_length = 100;
 4020c74:	00801904 	movi	r2,100
 4020c78:	e0bffc15 	stw	r2,-16(fp)
	inputData.availableNextMoves = malloc(sizeof(char[a_length][w_length]));
 4020c7c:	e0fffc17 	ldw	r3,-16(fp)
 4020c80:	e0bffd17 	ldw	r2,-12(fp)
 4020c84:	1885383a 	mul	r2,r3,r2
 4020c88:	1009883a 	mov	r4,r2
 4020c8c:	4024e800 	call	4024e80 <malloc>
 4020c90:	1007883a 	mov	r3,r2
 4020c94:	00800034 	movhi	r2,0
 4020c98:	10c96f15 	stw	r3,9660(r2)
	for(int i = 0; i < a_length; i++){
 4020c9c:	e03ffe15 	stw	zero,-8(fp)
 4020ca0:	00000b06 	br	4020cd0 <setupInputData+0x78>
		inputData.availableNextMoves[i] = malloc(sizeof(char) * w_length);
 4020ca4:	e13ffc17 	ldw	r4,-16(fp)
 4020ca8:	00800034 	movhi	r2,0
 4020cac:	10c96f17 	ldw	r3,9660(r2)
 4020cb0:	e0bffe17 	ldw	r2,-8(fp)
 4020cb4:	100490ba 	slli	r2,r2,2
 4020cb8:	18a1883a 	add	r16,r3,r2
 4020cbc:	4024e800 	call	4024e80 <malloc>
 4020cc0:	80800015 	stw	r2,0(r16)
	for(int i = 0; i < a_length; i++){
 4020cc4:	e0bffe17 	ldw	r2,-8(fp)
 4020cc8:	10800044 	addi	r2,r2,1
 4020ccc:	e0bffe15 	stw	r2,-8(fp)
 4020cd0:	e0fffe17 	ldw	r3,-8(fp)
 4020cd4:	e0bffd17 	ldw	r2,-12(fp)
 4020cd8:	18bff216 	blt	r3,r2,4020ca4 <setupInputData+0x4c>
	}
}
 4020cdc:	0001883a 	nop
 4020ce0:	0001883a 	nop
 4020ce4:	e6ffff04 	addi	sp,fp,-4
 4020ce8:	dfc00217 	ldw	ra,8(sp)
 4020cec:	df000117 	ldw	fp,4(sp)
 4020cf0:	dc000017 	ldw	r16,0(sp)
 4020cf4:	dec00304 	addi	sp,sp,12
 4020cf8:	f800283a 	ret

04020cfc <checkName>:

int checkName(FILE* in, char* c, char* name, int size){
 4020cfc:	defff904 	addi	sp,sp,-28
 4020d00:	dfc00615 	stw	ra,24(sp)
 4020d04:	df000515 	stw	fp,20(sp)
 4020d08:	df000504 	addi	fp,sp,20
 4020d0c:	e13ffe15 	stw	r4,-8(fp)
 4020d10:	e17ffd15 	stw	r5,-12(fp)
 4020d14:	e1bffc15 	stw	r6,-16(fp)
 4020d18:	e1fffb15 	stw	r7,-20(fp)
    // check that name is correct
    for(int i = 0; i < size; i++){
 4020d1c:	e03fff15 	stw	zero,-4(fp)
 4020d20:	00001706 	br	4020d80 <checkName+0x84>
        *c = getc(in);
 4020d24:	e13ffe17 	ldw	r4,-8(fp)
 4020d28:	4024ba80 	call	4024ba8 <getc>
 4020d2c:	1007883a 	mov	r3,r2
 4020d30:	e0bffd17 	ldw	r2,-12(fp)
 4020d34:	10c00005 	stb	r3,0(r2)
        if(*c != name[i]){
 4020d38:	e0bffd17 	ldw	r2,-12(fp)
 4020d3c:	11000003 	ldbu	r4,0(r2)
 4020d40:	e0bfff17 	ldw	r2,-4(fp)
 4020d44:	e0fffc17 	ldw	r3,-16(fp)
 4020d48:	1885883a 	add	r2,r3,r2
 4020d4c:	10800003 	ldbu	r2,0(r2)
 4020d50:	20c03fcc 	andi	r3,r4,255
 4020d54:	18c0201c 	xori	r3,r3,128
 4020d58:	18ffe004 	addi	r3,r3,-128
 4020d5c:	10803fcc 	andi	r2,r2,255
 4020d60:	1080201c 	xori	r2,r2,128
 4020d64:	10bfe004 	addi	r2,r2,-128
 4020d68:	18800226 	beq	r3,r2,4020d74 <checkName+0x78>
            return 1;
 4020d6c:	00800044 	movi	r2,1
 4020d70:	00001506 	br	4020dc8 <checkName+0xcc>
    for(int i = 0; i < size; i++){
 4020d74:	e0bfff17 	ldw	r2,-4(fp)
 4020d78:	10800044 	addi	r2,r2,1
 4020d7c:	e0bfff15 	stw	r2,-4(fp)
 4020d80:	e0ffff17 	ldw	r3,-4(fp)
 4020d84:	e0bffb17 	ldw	r2,-20(fp)
 4020d88:	18bfe616 	blt	r3,r2,4020d24 <checkName+0x28>
        }
    }
    // read semicolon
    *c = getc(in);
 4020d8c:	e13ffe17 	ldw	r4,-8(fp)
 4020d90:	4024ba80 	call	4024ba8 <getc>
 4020d94:	1007883a 	mov	r3,r2
 4020d98:	e0bffd17 	ldw	r2,-12(fp)
 4020d9c:	10c00005 	stb	r3,0(r2)
    if(*c != ':') return 1;
 4020da0:	e0bffd17 	ldw	r2,-12(fp)
 4020da4:	10800003 	ldbu	r2,0(r2)
 4020da8:	10803fcc 	andi	r2,r2,255
 4020dac:	1080201c 	xori	r2,r2,128
 4020db0:	10bfe004 	addi	r2,r2,-128
 4020db4:	10800ea0 	cmpeqi	r2,r2,58
 4020db8:	1000021e 	bne	r2,zero,4020dc4 <checkName+0xc8>
 4020dbc:	00800044 	movi	r2,1
 4020dc0:	00000106 	br	4020dc8 <checkName+0xcc>
    // if everything checks out
    return 0;
 4020dc4:	0005883a 	mov	r2,zero
}
 4020dc8:	e037883a 	mov	sp,fp
 4020dcc:	dfc00117 	ldw	ra,4(sp)
 4020dd0:	df000017 	ldw	fp,0(sp)
 4020dd4:	dec00204 	addi	sp,sp,8
 4020dd8:	f800283a 	ret

04020ddc <readStr>:

// assumes that if string is opened it will terminate
// does not check for un closed strings
// assumes that enough space is avaiable in store for string
int readStr(FILE* in, char* c, char* store){
 4020ddc:	defffa04 	addi	sp,sp,-24
 4020de0:	dfc00515 	stw	ra,20(sp)
 4020de4:	df000415 	stw	fp,16(sp)
 4020de8:	df000404 	addi	fp,sp,16
 4020dec:	e13ffe15 	stw	r4,-8(fp)
 4020df0:	e17ffd15 	stw	r5,-12(fp)
 4020df4:	e1bffc15 	stw	r6,-16(fp)
    if(*c != '"')
 4020df8:	e0bffd17 	ldw	r2,-12(fp)
 4020dfc:	10800003 	ldbu	r2,0(r2)
 4020e00:	10803fcc 	andi	r2,r2,255
 4020e04:	1080201c 	xori	r2,r2,128
 4020e08:	10bfe004 	addi	r2,r2,-128
 4020e0c:	108008a0 	cmpeqi	r2,r2,34
 4020e10:	1000021e 	bne	r2,zero,4020e1c <readStr+0x40>
        return 1;
 4020e14:	00800044 	movi	r2,1
 4020e18:	00002606 	br	4020eb4 <readStr+0xd8>
    int i = 0;
 4020e1c:	e03fff15 	stw	zero,-4(fp)
    *c = getc(in);
 4020e20:	e13ffe17 	ldw	r4,-8(fp)
 4020e24:	4024ba80 	call	4024ba8 <getc>
 4020e28:	1007883a 	mov	r3,r2
 4020e2c:	e0bffd17 	ldw	r2,-12(fp)
 4020e30:	10c00005 	stb	r3,0(r2)
    while(*c != '"'){
 4020e34:	00000e06 	br	4020e70 <readStr+0x94>
        store[i++] = *c;
 4020e38:	e0bfff17 	ldw	r2,-4(fp)
 4020e3c:	10c00044 	addi	r3,r2,1
 4020e40:	e0ffff15 	stw	r3,-4(fp)
 4020e44:	1007883a 	mov	r3,r2
 4020e48:	e0bffc17 	ldw	r2,-16(fp)
 4020e4c:	10c5883a 	add	r2,r2,r3
 4020e50:	e0fffd17 	ldw	r3,-12(fp)
 4020e54:	18c00003 	ldbu	r3,0(r3)
 4020e58:	10c00005 	stb	r3,0(r2)
        *c = getc(in);
 4020e5c:	e13ffe17 	ldw	r4,-8(fp)
 4020e60:	4024ba80 	call	4024ba8 <getc>
 4020e64:	1007883a 	mov	r3,r2
 4020e68:	e0bffd17 	ldw	r2,-12(fp)
 4020e6c:	10c00005 	stb	r3,0(r2)
    while(*c != '"'){
 4020e70:	e0bffd17 	ldw	r2,-12(fp)
 4020e74:	10800003 	ldbu	r2,0(r2)
 4020e78:	10803fcc 	andi	r2,r2,255
 4020e7c:	1080201c 	xori	r2,r2,128
 4020e80:	10bfe004 	addi	r2,r2,-128
 4020e84:	10800898 	cmpnei	r2,r2,34
 4020e88:	103feb1e 	bne	r2,zero,4020e38 <readStr+0x5c>
    }
    store[i] = '\0';
 4020e8c:	e0bfff17 	ldw	r2,-4(fp)
 4020e90:	e0fffc17 	ldw	r3,-16(fp)
 4020e94:	1885883a 	add	r2,r3,r2
 4020e98:	10000005 	stb	zero,0(r2)
    *c = getc(in);
 4020e9c:	e13ffe17 	ldw	r4,-8(fp)
 4020ea0:	4024ba80 	call	4024ba8 <getc>
 4020ea4:	1007883a 	mov	r3,r2
 4020ea8:	e0bffd17 	ldw	r2,-12(fp)
 4020eac:	10c00005 	stb	r3,0(r2)
    return 0;
 4020eb0:	0005883a 	mov	r2,zero
}
 4020eb4:	e037883a 	mov	sp,fp
 4020eb8:	dfc00117 	ldw	ra,4(sp)
 4020ebc:	df000017 	ldw	fp,0(sp)
 4020ec0:	dec00204 	addi	sp,sp,8
 4020ec4:	f800283a 	ret

04020ec8 <readBoolInput>:

int readBoolInput(FILE* in, char* c, char* name, int size, int* store){
 4020ec8:	defff604 	addi	sp,sp,-40
 4020ecc:	dfc00915 	stw	ra,36(sp)
 4020ed0:	df000815 	stw	fp,32(sp)
 4020ed4:	df000804 	addi	fp,sp,32
 4020ed8:	e13ffb15 	stw	r4,-20(fp)
 4020edc:	e17ffa15 	stw	r5,-24(fp)
 4020ee0:	e1bff915 	stw	r6,-28(fp)
 4020ee4:	e1fff815 	stw	r7,-32(fp)
    // check name and colon
    if(checkName(in, c, name, size))
 4020ee8:	e1fff817 	ldw	r7,-32(fp)
 4020eec:	e1bff917 	ldw	r6,-28(fp)
 4020ef0:	e17ffa17 	ldw	r5,-24(fp)
 4020ef4:	e13ffb17 	ldw	r4,-20(fp)
 4020ef8:	4020cfc0 	call	4020cfc <checkName>
 4020efc:	10000226 	beq	r2,zero,4020f08 <readBoolInput+0x40>
        return 1;
 4020f00:	00800044 	movi	r2,1
 4020f04:	00007706 	br	40210e4 <readBoolInput+0x21c>

    // read value
    *c = getc(in);
 4020f08:	e13ffb17 	ldw	r4,-20(fp)
 4020f0c:	4024ba80 	call	4024ba8 <getc>
 4020f10:	1007883a 	mov	r3,r2
 4020f14:	e0bffa17 	ldw	r2,-24(fp)
 4020f18:	10c00005 	stb	r3,0(r2)
    // check if true
    if(*c == 't' | *c == 'T'){
 4020f1c:	e0bffa17 	ldw	r2,-24(fp)
 4020f20:	10800003 	ldbu	r2,0(r2)
 4020f24:	10803fcc 	andi	r2,r2,255
 4020f28:	1080201c 	xori	r2,r2,128
 4020f2c:	10bfe004 	addi	r2,r2,-128
 4020f30:	10801d20 	cmpeqi	r2,r2,116
 4020f34:	1007883a 	mov	r3,r2
 4020f38:	e0bffa17 	ldw	r2,-24(fp)
 4020f3c:	10800003 	ldbu	r2,0(r2)
 4020f40:	10803fcc 	andi	r2,r2,255
 4020f44:	1080201c 	xori	r2,r2,128
 4020f48:	10bfe004 	addi	r2,r2,-128
 4020f4c:	10801520 	cmpeqi	r2,r2,84
 4020f50:	1884b03a 	or	r2,r3,r2
 4020f54:	10803fcc 	andi	r2,r2,255
 4020f58:	10002926 	beq	r2,zero,4021000 <readBoolInput+0x138>
        const char* comp = "rue";
 4020f5c:	00800034 	movhi	r2,0
 4020f60:	10802404 	addi	r2,r2,144
 4020f64:	e0bffc15 	stw	r2,-16(fp)
        for(int i = 0; i < 3; i++){
 4020f68:	e03fff15 	stw	zero,-4(fp)
 4020f6c:	00001706 	br	4020fcc <readBoolInput+0x104>
            *c = getc(in);
 4020f70:	e13ffb17 	ldw	r4,-20(fp)
 4020f74:	4024ba80 	call	4024ba8 <getc>
 4020f78:	1007883a 	mov	r3,r2
 4020f7c:	e0bffa17 	ldw	r2,-24(fp)
 4020f80:	10c00005 	stb	r3,0(r2)
            if(*c != comp[i])
 4020f84:	e0bffa17 	ldw	r2,-24(fp)
 4020f88:	11000003 	ldbu	r4,0(r2)
 4020f8c:	e0bfff17 	ldw	r2,-4(fp)
 4020f90:	e0fffc17 	ldw	r3,-16(fp)
 4020f94:	1885883a 	add	r2,r3,r2
 4020f98:	10800003 	ldbu	r2,0(r2)
 4020f9c:	20c03fcc 	andi	r3,r4,255
 4020fa0:	18c0201c 	xori	r3,r3,128
 4020fa4:	18ffe004 	addi	r3,r3,-128
 4020fa8:	10803fcc 	andi	r2,r2,255
 4020fac:	1080201c 	xori	r2,r2,128
 4020fb0:	10bfe004 	addi	r2,r2,-128
 4020fb4:	18800226 	beq	r3,r2,4020fc0 <readBoolInput+0xf8>
                return 1;
 4020fb8:	00800044 	movi	r2,1
 4020fbc:	00004906 	br	40210e4 <readBoolInput+0x21c>
        for(int i = 0; i < 3; i++){
 4020fc0:	e0bfff17 	ldw	r2,-4(fp)
 4020fc4:	10800044 	addi	r2,r2,1
 4020fc8:	e0bfff15 	stw	r2,-4(fp)
 4020fcc:	e0bfff17 	ldw	r2,-4(fp)
 4020fd0:	108000d0 	cmplti	r2,r2,3
 4020fd4:	103fe61e 	bne	r2,zero,4020f70 <readBoolInput+0xa8>
        }
        *store = 1;
 4020fd8:	e0800217 	ldw	r2,8(fp)
 4020fdc:	00c00044 	movi	r3,1
 4020fe0:	10c00015 	stw	r3,0(r2)
        *c = getc(in);
 4020fe4:	e13ffb17 	ldw	r4,-20(fp)
 4020fe8:	4024ba80 	call	4024ba8 <getc>
 4020fec:	1007883a 	mov	r3,r2
 4020ff0:	e0bffa17 	ldw	r2,-24(fp)
 4020ff4:	10c00005 	stb	r3,0(r2)
        return 0;
 4020ff8:	0005883a 	mov	r2,zero
 4020ffc:	00003906 	br	40210e4 <readBoolInput+0x21c>
    }
    // check if false
    else if(*c == 'f' | *c == 'F'){
 4021000:	e0bffa17 	ldw	r2,-24(fp)
 4021004:	10800003 	ldbu	r2,0(r2)
 4021008:	10803fcc 	andi	r2,r2,255
 402100c:	1080201c 	xori	r2,r2,128
 4021010:	10bfe004 	addi	r2,r2,-128
 4021014:	108019a0 	cmpeqi	r2,r2,102
 4021018:	1007883a 	mov	r3,r2
 402101c:	e0bffa17 	ldw	r2,-24(fp)
 4021020:	10800003 	ldbu	r2,0(r2)
 4021024:	10803fcc 	andi	r2,r2,255
 4021028:	1080201c 	xori	r2,r2,128
 402102c:	10bfe004 	addi	r2,r2,-128
 4021030:	108011a0 	cmpeqi	r2,r2,70
 4021034:	1884b03a 	or	r2,r3,r2
 4021038:	10803fcc 	andi	r2,r2,255
 402103c:	10002826 	beq	r2,zero,40210e0 <readBoolInput+0x218>
        const char* comp = "alse";
 4021040:	00800034 	movhi	r2,0
 4021044:	10802504 	addi	r2,r2,148
 4021048:	e0bffd15 	stw	r2,-12(fp)
        for(int i = 0; i < 4; i++){
 402104c:	e03ffe15 	stw	zero,-8(fp)
 4021050:	00001706 	br	40210b0 <readBoolInput+0x1e8>
            *c = getc(in);
 4021054:	e13ffb17 	ldw	r4,-20(fp)
 4021058:	4024ba80 	call	4024ba8 <getc>
 402105c:	1007883a 	mov	r3,r2
 4021060:	e0bffa17 	ldw	r2,-24(fp)
 4021064:	10c00005 	stb	r3,0(r2)
            if(*c != comp[i])
 4021068:	e0bffa17 	ldw	r2,-24(fp)
 402106c:	11000003 	ldbu	r4,0(r2)
 4021070:	e0bffe17 	ldw	r2,-8(fp)
 4021074:	e0fffd17 	ldw	r3,-12(fp)
 4021078:	1885883a 	add	r2,r3,r2
 402107c:	10800003 	ldbu	r2,0(r2)
 4021080:	20c03fcc 	andi	r3,r4,255
 4021084:	18c0201c 	xori	r3,r3,128
 4021088:	18ffe004 	addi	r3,r3,-128
 402108c:	10803fcc 	andi	r2,r2,255
 4021090:	1080201c 	xori	r2,r2,128
 4021094:	10bfe004 	addi	r2,r2,-128
 4021098:	18800226 	beq	r3,r2,40210a4 <readBoolInput+0x1dc>
                return 1;
 402109c:	00800044 	movi	r2,1
 40210a0:	00001006 	br	40210e4 <readBoolInput+0x21c>
        for(int i = 0; i < 4; i++){
 40210a4:	e0bffe17 	ldw	r2,-8(fp)
 40210a8:	10800044 	addi	r2,r2,1
 40210ac:	e0bffe15 	stw	r2,-8(fp)
 40210b0:	e0bffe17 	ldw	r2,-8(fp)
 40210b4:	10800110 	cmplti	r2,r2,4
 40210b8:	103fe61e 	bne	r2,zero,4021054 <readBoolInput+0x18c>
        }
        *store = 0;
 40210bc:	e0800217 	ldw	r2,8(fp)
 40210c0:	10000015 	stw	zero,0(r2)
        *c = getc(in);
 40210c4:	e13ffb17 	ldw	r4,-20(fp)
 40210c8:	4024ba80 	call	4024ba8 <getc>
 40210cc:	1007883a 	mov	r3,r2
 40210d0:	e0bffa17 	ldw	r2,-24(fp)
 40210d4:	10c00005 	stb	r3,0(r2)
        return 0;
 40210d8:	0005883a 	mov	r2,zero
 40210dc:	00000106 	br	40210e4 <readBoolInput+0x21c>
    }
    // anything else is an error
    return 1;
 40210e0:	00800044 	movi	r2,1
}
 40210e4:	e037883a 	mov	sp,fp
 40210e8:	dfc00117 	ldw	ra,4(sp)
 40210ec:	df000017 	ldw	fp,0(sp)
 40210f0:	dec00204 	addi	sp,sp,8
 40210f4:	f800283a 	ret

040210f8 <readIntInput>:

int readIntInput(FILE* in, char* c, char* name, int size, int* store){
 40210f8:	defffa04 	addi	sp,sp,-24
 40210fc:	dfc00515 	stw	ra,20(sp)
 4021100:	df000415 	stw	fp,16(sp)
 4021104:	df000404 	addi	fp,sp,16
 4021108:	e13fff15 	stw	r4,-4(fp)
 402110c:	e17ffe15 	stw	r5,-8(fp)
 4021110:	e1bffd15 	stw	r6,-12(fp)
 4021114:	e1fffc15 	stw	r7,-16(fp)
    // check name and semi colon
    if(checkName(in, c, name, size) == 1)
 4021118:	e1fffc17 	ldw	r7,-16(fp)
 402111c:	e1bffd17 	ldw	r6,-12(fp)
 4021120:	e17ffe17 	ldw	r5,-8(fp)
 4021124:	e13fff17 	ldw	r4,-4(fp)
 4021128:	4020cfc0 	call	4020cfc <checkName>
 402112c:	10800058 	cmpnei	r2,r2,1
 4021130:	1000021e 	bne	r2,zero,402113c <readIntInput+0x44>
        return 1;
 4021134:	00800044 	movi	r2,1
 4021138:	00003b06 	br	4021228 <readIntInput+0x130>

    // read value
    *store = 0;
 402113c:	e0800217 	ldw	r2,8(fp)
 4021140:	10000015 	stw	zero,0(r2)
    *c = getc(in);
 4021144:	e13fff17 	ldw	r4,-4(fp)
 4021148:	4024ba80 	call	4024ba8 <getc>
 402114c:	1007883a 	mov	r3,r2
 4021150:	e0bffe17 	ldw	r2,-8(fp)
 4021154:	10c00005 	stb	r3,0(r2)
    if('0' > *c | *c > '9')
 4021158:	e0bffe17 	ldw	r2,-8(fp)
 402115c:	10800003 	ldbu	r2,0(r2)
 4021160:	10803fcc 	andi	r2,r2,255
 4021164:	1080201c 	xori	r2,r2,128
 4021168:	10bfe004 	addi	r2,r2,-128
 402116c:	10800c10 	cmplti	r2,r2,48
 4021170:	1007883a 	mov	r3,r2
 4021174:	e0bffe17 	ldw	r2,-8(fp)
 4021178:	10800003 	ldbu	r2,0(r2)
 402117c:	10803fcc 	andi	r2,r2,255
 4021180:	1080201c 	xori	r2,r2,128
 4021184:	10bfe004 	addi	r2,r2,-128
 4021188:	10800e88 	cmpgei	r2,r2,58
 402118c:	1884b03a 	or	r2,r3,r2
 4021190:	10803fcc 	andi	r2,r2,255
 4021194:	10000226 	beq	r2,zero,40211a0 <readIntInput+0xa8>
        return 1;
 4021198:	00800044 	movi	r2,1
 402119c:	00002206 	br	4021228 <readIntInput+0x130>
    do{
        *store = *store * 10 + *c - '0';
 40211a0:	e0800217 	ldw	r2,8(fp)
 40211a4:	10800017 	ldw	r2,0(r2)
 40211a8:	10c002a4 	muli	r3,r2,10
 40211ac:	e0bffe17 	ldw	r2,-8(fp)
 40211b0:	10800003 	ldbu	r2,0(r2)
 40211b4:	10803fcc 	andi	r2,r2,255
 40211b8:	1080201c 	xori	r2,r2,128
 40211bc:	10bfe004 	addi	r2,r2,-128
 40211c0:	1885883a 	add	r2,r3,r2
 40211c4:	10fff404 	addi	r3,r2,-48
 40211c8:	e0800217 	ldw	r2,8(fp)
 40211cc:	10c00015 	stw	r3,0(r2)
        *c = getc(in);
 40211d0:	e13fff17 	ldw	r4,-4(fp)
 40211d4:	4024ba80 	call	4024ba8 <getc>
 40211d8:	1007883a 	mov	r3,r2
 40211dc:	e0bffe17 	ldw	r2,-8(fp)
 40211e0:	10c00005 	stb	r3,0(r2)
    }
    while('0' <= *c & *c <= '9');
 40211e4:	e0bffe17 	ldw	r2,-8(fp)
 40211e8:	10800003 	ldbu	r2,0(r2)
 40211ec:	10803fcc 	andi	r2,r2,255
 40211f0:	1080201c 	xori	r2,r2,128
 40211f4:	10bfe004 	addi	r2,r2,-128
 40211f8:	10800c08 	cmpgei	r2,r2,48
 40211fc:	1007883a 	mov	r3,r2
 4021200:	e0bffe17 	ldw	r2,-8(fp)
 4021204:	10800003 	ldbu	r2,0(r2)
 4021208:	10803fcc 	andi	r2,r2,255
 402120c:	1080201c 	xori	r2,r2,128
 4021210:	10bfe004 	addi	r2,r2,-128
 4021214:	10800e90 	cmplti	r2,r2,58
 4021218:	1884703a 	and	r2,r3,r2
 402121c:	10803fcc 	andi	r2,r2,255
 4021220:	103fdf1e 	bne	r2,zero,40211a0 <readIntInput+0xa8>
    return 0;
 4021224:	0005883a 	mov	r2,zero
}
 4021228:	e037883a 	mov	sp,fp
 402122c:	dfc00117 	ldw	ra,4(sp)
 4021230:	df000017 	ldw	fp,0(sp)
 4021234:	dec00204 	addi	sp,sp,8
 4021238:	f800283a 	ret

0402123c <readStrInput>:

int readStrInput(FILE* in, char* c, char* name, int size, char* store){
 402123c:	defffa04 	addi	sp,sp,-24
 4021240:	dfc00515 	stw	ra,20(sp)
 4021244:	df000415 	stw	fp,16(sp)
 4021248:	df000404 	addi	fp,sp,16
 402124c:	e13fff15 	stw	r4,-4(fp)
 4021250:	e17ffe15 	stw	r5,-8(fp)
 4021254:	e1bffd15 	stw	r6,-12(fp)
 4021258:	e1fffc15 	stw	r7,-16(fp)
    if(checkName(in, c, name, size) == 1)
 402125c:	e1fffc17 	ldw	r7,-16(fp)
 4021260:	e1bffd17 	ldw	r6,-12(fp)
 4021264:	e17ffe17 	ldw	r5,-8(fp)
 4021268:	e13fff17 	ldw	r4,-4(fp)
 402126c:	4020cfc0 	call	4020cfc <checkName>
 4021270:	10800058 	cmpnei	r2,r2,1
 4021274:	1000021e 	bne	r2,zero,4021280 <readStrInput+0x44>
        return 1;
 4021278:	00800044 	movi	r2,1
 402127c:	00000e06 	br	40212b8 <readStrInput+0x7c>

    // get value
    *c = getc(in);
 4021280:	e13fff17 	ldw	r4,-4(fp)
 4021284:	4024ba80 	call	4024ba8 <getc>
 4021288:	1007883a 	mov	r3,r2
 402128c:	e0bffe17 	ldw	r2,-8(fp)
 4021290:	10c00005 	stb	r3,0(r2)
    if(readStr(in, c, store) == 1)
 4021294:	e1800217 	ldw	r6,8(fp)
 4021298:	e17ffe17 	ldw	r5,-8(fp)
 402129c:	e13fff17 	ldw	r4,-4(fp)
 40212a0:	4020ddc0 	call	4020ddc <readStr>
 40212a4:	10800058 	cmpnei	r2,r2,1
 40212a8:	1000021e 	bne	r2,zero,40212b4 <readStrInput+0x78>
        return 1;
 40212ac:	00800044 	movi	r2,1
 40212b0:	00000106 	br	40212b8 <readStrInput+0x7c>

    return 0;
 40212b4:	0005883a 	mov	r2,zero
}
 40212b8:	e037883a 	mov	sp,fp
 40212bc:	dfc00117 	ldw	ra,4(sp)
 40212c0:	df000017 	ldw	fp,0(sp)
 40212c4:	dec00204 	addi	sp,sp,8
 40212c8:	f800283a 	ret

040212cc <readStrArrayInput>:

// if starting [ is found assumes remaining ] will be found
// does not check for unclosed ]
// assumes that stroe will have enough space for array
int readStrArrayInput(FILE* in, char* c, char* name, int size, char** store, int* storeCount){
 40212cc:	defff904 	addi	sp,sp,-28
 40212d0:	dfc00615 	stw	ra,24(sp)
 40212d4:	df000515 	stw	fp,20(sp)
 40212d8:	df000504 	addi	fp,sp,20
 40212dc:	e13ffe15 	stw	r4,-8(fp)
 40212e0:	e17ffd15 	stw	r5,-12(fp)
 40212e4:	e1bffc15 	stw	r6,-16(fp)
 40212e8:	e1fffb15 	stw	r7,-20(fp)
    if(checkName(in, c, name, size) == -1)
 40212ec:	e1fffb17 	ldw	r7,-20(fp)
 40212f0:	e1bffc17 	ldw	r6,-16(fp)
 40212f4:	e17ffd17 	ldw	r5,-12(fp)
 40212f8:	e13ffe17 	ldw	r4,-8(fp)
 40212fc:	4020cfc0 	call	4020cfc <checkName>
 4021300:	10bfffd8 	cmpnei	r2,r2,-1
 4021304:	1000021e 	bne	r2,zero,4021310 <readStrArrayInput+0x44>
        return -1;
 4021308:	00bfffc4 	movi	r2,-1
 402130c:	00005106 	br	4021454 <readStrArrayInput+0x188>

    // get value
    *c = getc(in);
 4021310:	e13ffe17 	ldw	r4,-8(fp)
 4021314:	4024ba80 	call	4024ba8 <getc>
 4021318:	1007883a 	mov	r3,r2
 402131c:	e0bffd17 	ldw	r2,-12(fp)
 4021320:	10c00005 	stb	r3,0(r2)
    if(*c != '[')
 4021324:	e0bffd17 	ldw	r2,-12(fp)
 4021328:	10800003 	ldbu	r2,0(r2)
 402132c:	10803fcc 	andi	r2,r2,255
 4021330:	1080201c 	xori	r2,r2,128
 4021334:	10bfe004 	addi	r2,r2,-128
 4021338:	108016e0 	cmpeqi	r2,r2,91
 402133c:	1000021e 	bne	r2,zero,4021348 <readStrArrayInput+0x7c>
        return 1;
 4021340:	00800044 	movi	r2,1
 4021344:	00004306 	br	4021454 <readStrArrayInput+0x188>
    *c = getc(in);
 4021348:	e13ffe17 	ldw	r4,-8(fp)
 402134c:	4024ba80 	call	4024ba8 <getc>
 4021350:	1007883a 	mov	r3,r2
 4021354:	e0bffd17 	ldw	r2,-12(fp)
 4021358:	10c00005 	stb	r3,0(r2)
    int i = 0;
 402135c:	e03fff15 	stw	zero,-4(fp)
    while(*c != ']'){
 4021360:	00002c06 	br	4021414 <readStrArrayInput+0x148>
        if(readStr(in, c, store[i++]))
 4021364:	e0bfff17 	ldw	r2,-4(fp)
 4021368:	10c00044 	addi	r3,r2,1
 402136c:	e0ffff15 	stw	r3,-4(fp)
 4021370:	100490ba 	slli	r2,r2,2
 4021374:	e0c00217 	ldw	r3,8(fp)
 4021378:	1885883a 	add	r2,r3,r2
 402137c:	10800017 	ldw	r2,0(r2)
 4021380:	100d883a 	mov	r6,r2
 4021384:	e17ffd17 	ldw	r5,-12(fp)
 4021388:	e13ffe17 	ldw	r4,-8(fp)
 402138c:	4020ddc0 	call	4020ddc <readStr>
 4021390:	10000226 	beq	r2,zero,402139c <readStrArrayInput+0xd0>
            return 1;
 4021394:	00800044 	movi	r2,1
 4021398:	00002e06 	br	4021454 <readStrArrayInput+0x188>
        if(*c != ',' & *c != ']')
 402139c:	e0bffd17 	ldw	r2,-12(fp)
 40213a0:	10800003 	ldbu	r2,0(r2)
 40213a4:	10803fcc 	andi	r2,r2,255
 40213a8:	1080201c 	xori	r2,r2,128
 40213ac:	10bfe004 	addi	r2,r2,-128
 40213b0:	10800b18 	cmpnei	r2,r2,44
 40213b4:	1007883a 	mov	r3,r2
 40213b8:	e0bffd17 	ldw	r2,-12(fp)
 40213bc:	10800003 	ldbu	r2,0(r2)
 40213c0:	10803fcc 	andi	r2,r2,255
 40213c4:	1080201c 	xori	r2,r2,128
 40213c8:	10bfe004 	addi	r2,r2,-128
 40213cc:	10801758 	cmpnei	r2,r2,93
 40213d0:	1884703a 	and	r2,r3,r2
 40213d4:	10803fcc 	andi	r2,r2,255
 40213d8:	10000226 	beq	r2,zero,40213e4 <readStrArrayInput+0x118>
            return 1;
 40213dc:	00800044 	movi	r2,1
 40213e0:	00001c06 	br	4021454 <readStrArrayInput+0x188>
        if(*c == ',')
 40213e4:	e0bffd17 	ldw	r2,-12(fp)
 40213e8:	10800003 	ldbu	r2,0(r2)
 40213ec:	10803fcc 	andi	r2,r2,255
 40213f0:	1080201c 	xori	r2,r2,128
 40213f4:	10bfe004 	addi	r2,r2,-128
 40213f8:	10800b18 	cmpnei	r2,r2,44
 40213fc:	1000051e 	bne	r2,zero,4021414 <readStrArrayInput+0x148>
            *c = getc(in);
 4021400:	e13ffe17 	ldw	r4,-8(fp)
 4021404:	4024ba80 	call	4024ba8 <getc>
 4021408:	1007883a 	mov	r3,r2
 402140c:	e0bffd17 	ldw	r2,-12(fp)
 4021410:	10c00005 	stb	r3,0(r2)
    while(*c != ']'){
 4021414:	e0bffd17 	ldw	r2,-12(fp)
 4021418:	10800003 	ldbu	r2,0(r2)
 402141c:	10803fcc 	andi	r2,r2,255
 4021420:	1080201c 	xori	r2,r2,128
 4021424:	10bfe004 	addi	r2,r2,-128
 4021428:	10801758 	cmpnei	r2,r2,93
 402142c:	103fcd1e 	bne	r2,zero,4021364 <readStrArrayInput+0x98>
    }
    *storeCount = i;
 4021430:	e0800317 	ldw	r2,12(fp)
 4021434:	e0ffff17 	ldw	r3,-4(fp)
 4021438:	10c00015 	stw	r3,0(r2)
    *c = getc(in);
 402143c:	e13ffe17 	ldw	r4,-8(fp)
 4021440:	4024ba80 	call	4024ba8 <getc>
 4021444:	1007883a 	mov	r3,r2
 4021448:	e0bffd17 	ldw	r2,-12(fp)
 402144c:	10c00005 	stb	r3,0(r2)
    return 0;
 4021450:	0005883a 	mov	r2,zero
}
 4021454:	e037883a 	mov	sp,fp
 4021458:	dfc00117 	ldw	ra,4(sp)
 402145c:	df000017 	ldw	fp,0(sp)
 4021460:	dec00204 	addi	sp,sp,8
 4021464:	f800283a 	ret

04021468 <readInput>:

int readInput(FILE* in, InputData* out){
 4021468:	defff904 	addi	sp,sp,-28
 402146c:	dfc00615 	stw	ra,24(sp)
 4021470:	df000515 	stw	fp,20(sp)
 4021474:	df000504 	addi	fp,sp,20
 4021478:	e13ffe15 	stw	r4,-8(fp)
 402147c:	e17ffd15 	stw	r5,-12(fp)
    char c = getc(in);
 4021480:	e13ffe17 	ldw	r4,-8(fp)
 4021484:	4024ba80 	call	4024ba8 <getc>
 4021488:	e0bfffc5 	stb	r2,-1(fp)
    // errors return 1
    if(c == '{'){
 402148c:	e0bfffc3 	ldbu	r2,-1(fp)
 4021490:	10803fcc 	andi	r2,r2,255
 4021494:	1080201c 	xori	r2,r2,128
 4021498:	10bfe004 	addi	r2,r2,-128
 402149c:	10801ed8 	cmpnei	r2,r2,123
 40214a0:	1000991e 	bne	r2,zero,4021708 <readInput+0x2a0>
        if(readBoolInput(in, &c, "\"isTurn\"", 8, &out->isTurn))
 40214a4:	e0bffd17 	ldw	r2,-12(fp)
 40214a8:	e0ffffc4 	addi	r3,fp,-1
 40214ac:	d8800015 	stw	r2,0(sp)
 40214b0:	01c00204 	movi	r7,8
 40214b4:	01800034 	movhi	r6,0
 40214b8:	31802704 	addi	r6,r6,156
 40214bc:	180b883a 	mov	r5,r3
 40214c0:	e13ffe17 	ldw	r4,-8(fp)
 40214c4:	4020ec80 	call	4020ec8 <readBoolInput>
 40214c8:	10000226 	beq	r2,zero,40214d4 <readInput+0x6c>
            return 1;
 40214cc:	00800044 	movi	r2,1
 40214d0:	00008e06 	br	402170c <readInput+0x2a4>
        // check for comma
        if(c != ',')
 40214d4:	e0bfffc3 	ldbu	r2,-1(fp)
 40214d8:	10803fcc 	andi	r2,r2,255
 40214dc:	1080201c 	xori	r2,r2,128
 40214e0:	10bfe004 	addi	r2,r2,-128
 40214e4:	10800b20 	cmpeqi	r2,r2,44
 40214e8:	1000021e 	bne	r2,zero,40214f4 <readInput+0x8c>
            return 1;
 40214ec:	00800044 	movi	r2,1
 40214f0:	00008606 	br	402170c <readInput+0x2a4>
        if(readIntInput(in, &c, "\"currentPlayerNumber\"", 21, &out->currentPlayerNumber))
 40214f4:	e0bffd17 	ldw	r2,-12(fp)
 40214f8:	10800104 	addi	r2,r2,4
 40214fc:	e0ffffc4 	addi	r3,fp,-1
 4021500:	d8800015 	stw	r2,0(sp)
 4021504:	01c00544 	movi	r7,21
 4021508:	01800034 	movhi	r6,0
 402150c:	31802a04 	addi	r6,r6,168
 4021510:	180b883a 	mov	r5,r3
 4021514:	e13ffe17 	ldw	r4,-8(fp)
 4021518:	40210f80 	call	40210f8 <readIntInput>
 402151c:	10000226 	beq	r2,zero,4021528 <readInput+0xc0>
            return 1;
 4021520:	00800044 	movi	r2,1
 4021524:	00007906 	br	402170c <readInput+0x2a4>
        // check for comma
        if(c != ',')
 4021528:	e0bfffc3 	ldbu	r2,-1(fp)
 402152c:	10803fcc 	andi	r2,r2,255
 4021530:	1080201c 	xori	r2,r2,128
 4021534:	10bfe004 	addi	r2,r2,-128
 4021538:	10800b20 	cmpeqi	r2,r2,44
 402153c:	1000021e 	bne	r2,zero,4021548 <readInput+0xe0>
            return 1;
 4021540:	00800044 	movi	r2,1
 4021544:	00007106 	br	402170c <readInput+0x2a4>
        if(readStrArrayInput(in, &c, "\"availableNextMoves\"", 20, out->availableNextMoves, &out->aviablableNextMovesCount))
 4021548:	e0bffd17 	ldw	r2,-12(fp)
 402154c:	10800217 	ldw	r2,8(r2)
 4021550:	e0fffd17 	ldw	r3,-12(fp)
 4021554:	18c00304 	addi	r3,r3,12
 4021558:	e13fffc4 	addi	r4,fp,-1
 402155c:	d8c00115 	stw	r3,4(sp)
 4021560:	d8800015 	stw	r2,0(sp)
 4021564:	01c00504 	movi	r7,20
 4021568:	01800034 	movhi	r6,0
 402156c:	31803004 	addi	r6,r6,192
 4021570:	200b883a 	mov	r5,r4
 4021574:	e13ffe17 	ldw	r4,-8(fp)
 4021578:	40212cc0 	call	40212cc <readStrArrayInput>
 402157c:	10000226 	beq	r2,zero,4021588 <readInput+0x120>
            return 1;
 4021580:	00800044 	movi	r2,1
 4021584:	00006106 	br	402170c <readInput+0x2a4>
        // check for comma
        if(c != ',')
 4021588:	e0bfffc3 	ldbu	r2,-1(fp)
 402158c:	10803fcc 	andi	r2,r2,255
 4021590:	1080201c 	xori	r2,r2,128
 4021594:	10bfe004 	addi	r2,r2,-128
 4021598:	10800b20 	cmpeqi	r2,r2,44
 402159c:	1000021e 	bne	r2,zero,40215a8 <readInput+0x140>
            return 1;
 40215a0:	00800044 	movi	r2,1
 40215a4:	00005906 	br	402170c <readInput+0x2a4>
        if(readIntInput(in, &c, "\"moneyAvailableAmount\"", 22, &out->moneyAvailableAmount))
 40215a8:	e0bffd17 	ldw	r2,-12(fp)
 40215ac:	10800404 	addi	r2,r2,16
 40215b0:	e0ffffc4 	addi	r3,fp,-1
 40215b4:	d8800015 	stw	r2,0(sp)
 40215b8:	01c00584 	movi	r7,22
 40215bc:	01800034 	movhi	r6,0
 40215c0:	31803604 	addi	r6,r6,216
 40215c4:	180b883a 	mov	r5,r3
 40215c8:	e13ffe17 	ldw	r4,-8(fp)
 40215cc:	40210f80 	call	40210f8 <readIntInput>
 40215d0:	10000226 	beq	r2,zero,40215dc <readInput+0x174>
            return 1;
 40215d4:	00800044 	movi	r2,1
 40215d8:	00004c06 	br	402170c <readInput+0x2a4>
        // check for comma
        if(c != ',')
 40215dc:	e0bfffc3 	ldbu	r2,-1(fp)
 40215e0:	10803fcc 	andi	r2,r2,255
 40215e4:	1080201c 	xori	r2,r2,128
 40215e8:	10bfe004 	addi	r2,r2,-128
 40215ec:	10800b20 	cmpeqi	r2,r2,44
 40215f0:	1000021e 	bne	r2,zero,40215fc <readInput+0x194>
            return 1;
 40215f4:	00800044 	movi	r2,1
 40215f8:	00004406 	br	402170c <readInput+0x2a4>
        if(readIntInput(in, &c, "\"minimumNextBetAmount\"", 22, &out->minimumNextBetAmount))
 40215fc:	e0bffd17 	ldw	r2,-12(fp)
 4021600:	10800504 	addi	r2,r2,20
 4021604:	e0ffffc4 	addi	r3,fp,-1
 4021608:	d8800015 	stw	r2,0(sp)
 402160c:	01c00584 	movi	r7,22
 4021610:	01800034 	movhi	r6,0
 4021614:	31803c04 	addi	r6,r6,240
 4021618:	180b883a 	mov	r5,r3
 402161c:	e13ffe17 	ldw	r4,-8(fp)
 4021620:	40210f80 	call	40210f8 <readIntInput>
 4021624:	10000226 	beq	r2,zero,4021630 <readInput+0x1c8>
            return 1;
 4021628:	00800044 	movi	r2,1
 402162c:	00003706 	br	402170c <readInput+0x2a4>
        // check for comma
        if(c != ',')
 4021630:	e0bfffc3 	ldbu	r2,-1(fp)
 4021634:	10803fcc 	andi	r2,r2,255
 4021638:	1080201c 	xori	r2,r2,128
 402163c:	10bfe004 	addi	r2,r2,-128
 4021640:	10800b20 	cmpeqi	r2,r2,44
 4021644:	1000021e 	bne	r2,zero,4021650 <readInput+0x1e8>
            return 1;
 4021648:	00800044 	movi	r2,1
 402164c:	00002f06 	br	402170c <readInput+0x2a4>
        if(readIntInput(in, &c, "\"relativeCardScore\"", 19, &out->relativeCardScore))
 4021650:	e0bffd17 	ldw	r2,-12(fp)
 4021654:	10800604 	addi	r2,r2,24
 4021658:	e0ffffc4 	addi	r3,fp,-1
 402165c:	d8800015 	stw	r2,0(sp)
 4021660:	01c004c4 	movi	r7,19
 4021664:	01800034 	movhi	r6,0
 4021668:	31804204 	addi	r6,r6,264
 402166c:	180b883a 	mov	r5,r3
 4021670:	e13ffe17 	ldw	r4,-8(fp)
 4021674:	40210f80 	call	40210f8 <readIntInput>
 4021678:	10000226 	beq	r2,zero,4021684 <readInput+0x21c>
            return 1;
 402167c:	00800044 	movi	r2,1
 4021680:	00002206 	br	402170c <readInput+0x2a4>
        // check for comma
        if(c != ',')
 4021684:	e0bfffc3 	ldbu	r2,-1(fp)
 4021688:	10803fcc 	andi	r2,r2,255
 402168c:	1080201c 	xori	r2,r2,128
 4021690:	10bfe004 	addi	r2,r2,-128
 4021694:	10800b20 	cmpeqi	r2,r2,44
 4021698:	1000021e 	bne	r2,zero,40216a4 <readInput+0x23c>
            return 1;
 402169c:	00800044 	movi	r2,1
 40216a0:	00001a06 	br	402170c <readInput+0x2a4>
        if(readIntInput(in, &c, "\"failedPeekAttemptsCurrentGame\"", 31, &out->failedPeekAttemptsCurrentGame))
 40216a4:	e0bffd17 	ldw	r2,-12(fp)
 40216a8:	10800704 	addi	r2,r2,28
 40216ac:	e0ffffc4 	addi	r3,fp,-1
 40216b0:	d8800015 	stw	r2,0(sp)
 40216b4:	01c007c4 	movi	r7,31
 40216b8:	01800034 	movhi	r6,0
 40216bc:	31804704 	addi	r6,r6,284
 40216c0:	180b883a 	mov	r5,r3
 40216c4:	e13ffe17 	ldw	r4,-8(fp)
 40216c8:	40210f80 	call	40210f8 <readIntInput>
 40216cc:	10000226 	beq	r2,zero,40216d8 <readInput+0x270>
            return 1;
 40216d0:	00800044 	movi	r2,1
 40216d4:	00000d06 	br	402170c <readInput+0x2a4>
        // read final }
        if(c != '}')
 40216d8:	e0bfffc3 	ldbu	r2,-1(fp)
 40216dc:	10803fcc 	andi	r2,r2,255
 40216e0:	1080201c 	xori	r2,r2,128
 40216e4:	10bfe004 	addi	r2,r2,-128
 40216e8:	10801f60 	cmpeqi	r2,r2,125
 40216ec:	1000021e 	bne	r2,zero,40216f8 <readInput+0x290>
            return 1;
 40216f0:	00800044 	movi	r2,1
 40216f4:	00000506 	br	402170c <readInput+0x2a4>
        // consume newline
        getc(in);
 40216f8:	e13ffe17 	ldw	r4,-8(fp)
 40216fc:	4024ba80 	call	4024ba8 <getc>
        return 0;
 4021700:	0005883a 	mov	r2,zero
 4021704:	00000106 	br	402170c <readInput+0x2a4>
    }
    return 1;
 4021708:	00800044 	movi	r2,1
}
 402170c:	e037883a 	mov	sp,fp
 4021710:	dfc00117 	ldw	ra,4(sp)
 4021714:	df000017 	ldw	fp,0(sp)
 4021718:	dec00204 	addi	sp,sp,8
 402171c:	f800283a 	ret

04021720 <writeBool>:
 *      Author: IBricchi
 */

#include "jsonEncode.h"

void writeBool(FILE* out, char* name, int val){
 4021720:	defffb04 	addi	sp,sp,-20
 4021724:	dfc00415 	stw	ra,16(sp)
 4021728:	df000315 	stw	fp,12(sp)
 402172c:	df000304 	addi	fp,sp,12
 4021730:	e13fff15 	stw	r4,-4(fp)
 4021734:	e17ffe15 	stw	r5,-8(fp)
 4021738:	e1bffd15 	stw	r6,-12(fp)
	if(val){
 402173c:	e0bffd17 	ldw	r2,-12(fp)
 4021740:	10000726 	beq	r2,zero,4021760 <writeBool+0x40>
		fprintf(out, "\"%s\":true", name, val);
 4021744:	e1fffd17 	ldw	r7,-12(fp)
 4021748:	e1bffe17 	ldw	r6,-8(fp)
 402174c:	01400034 	movhi	r5,0
 4021750:	29404f04 	addi	r5,r5,316
 4021754:	e13fff17 	ldw	r4,-4(fp)
 4021758:	4023dc80 	call	4023dc8 <fprintf>
	}
	else{
		fprintf(out, "\"%s\":false", name, val);
	}
}
 402175c:	00000606 	br	4021778 <writeBool+0x58>
		fprintf(out, "\"%s\":false", name, val);
 4021760:	e1fffd17 	ldw	r7,-12(fp)
 4021764:	e1bffe17 	ldw	r6,-8(fp)
 4021768:	01400034 	movhi	r5,0
 402176c:	29405204 	addi	r5,r5,328
 4021770:	e13fff17 	ldw	r4,-4(fp)
 4021774:	4023dc80 	call	4023dc8 <fprintf>
}
 4021778:	0001883a 	nop
 402177c:	e037883a 	mov	sp,fp
 4021780:	dfc00117 	ldw	ra,4(sp)
 4021784:	df000017 	ldw	fp,0(sp)
 4021788:	dec00204 	addi	sp,sp,8
 402178c:	f800283a 	ret

04021790 <writeInt>:

void writeInt(FILE* out, char* name, int val){
 4021790:	defffb04 	addi	sp,sp,-20
 4021794:	dfc00415 	stw	ra,16(sp)
 4021798:	df000315 	stw	fp,12(sp)
 402179c:	df000304 	addi	fp,sp,12
 40217a0:	e13fff15 	stw	r4,-4(fp)
 40217a4:	e17ffe15 	stw	r5,-8(fp)
 40217a8:	e1bffd15 	stw	r6,-12(fp)
	fprintf(out, "\"%s\":%i", name, val);
 40217ac:	e1fffd17 	ldw	r7,-12(fp)
 40217b0:	e1bffe17 	ldw	r6,-8(fp)
 40217b4:	01400034 	movhi	r5,0
 40217b8:	29405504 	addi	r5,r5,340
 40217bc:	e13fff17 	ldw	r4,-4(fp)
 40217c0:	4023dc80 	call	4023dc8 <fprintf>
}
 40217c4:	0001883a 	nop
 40217c8:	e037883a 	mov	sp,fp
 40217cc:	dfc00117 	ldw	ra,4(sp)
 40217d0:	df000017 	ldw	fp,0(sp)
 40217d4:	dec00204 	addi	sp,sp,8
 40217d8:	f800283a 	ret

040217dc <writeString>:

void writeString(FILE* out, char* name, char* val){
 40217dc:	defffb04 	addi	sp,sp,-20
 40217e0:	dfc00415 	stw	ra,16(sp)
 40217e4:	df000315 	stw	fp,12(sp)
 40217e8:	df000304 	addi	fp,sp,12
 40217ec:	e13fff15 	stw	r4,-4(fp)
 40217f0:	e17ffe15 	stw	r5,-8(fp)
 40217f4:	e1bffd15 	stw	r6,-12(fp)
	fprintf(out, "\"%s\":\"%s\"", name, val);
 40217f8:	e1fffd17 	ldw	r7,-12(fp)
 40217fc:	e1bffe17 	ldw	r6,-8(fp)
 4021800:	01400034 	movhi	r5,0
 4021804:	29405704 	addi	r5,r5,348
 4021808:	e13fff17 	ldw	r4,-4(fp)
 402180c:	4023dc80 	call	4023dc8 <fprintf>
}
 4021810:	0001883a 	nop
 4021814:	e037883a 	mov	sp,fp
 4021818:	dfc00117 	ldw	ra,4(sp)
 402181c:	df000017 	ldw	fp,0(sp)
 4021820:	dec00204 	addi	sp,sp,8
 4021824:	f800283a 	ret

04021828 <writeOutput>:

int writeOutput(FILE* out, OutputData* in){
 4021828:	defffc04 	addi	sp,sp,-16
 402182c:	dfc00315 	stw	ra,12(sp)
 4021830:	df000215 	stw	fp,8(sp)
 4021834:	df000204 	addi	fp,sp,8
 4021838:	e13fff15 	stw	r4,-4(fp)
 402183c:	e17ffe15 	stw	r5,-8(fp)
	fprintf(out,"{");
 4021840:	e17fff17 	ldw	r5,-4(fp)
 4021844:	01001ec4 	movi	r4,123
 4021848:	4023e340 	call	4023e34 <fputc>
	writeBool(out,"isActiveData",outputData.isActiveData);
 402184c:	00800034 	movhi	r2,0
 4021850:	10897a17 	ldw	r2,9704(r2)
 4021854:	100d883a 	mov	r6,r2
 4021858:	01400034 	movhi	r5,0
 402185c:	29405a04 	addi	r5,r5,360
 4021860:	e13fff17 	ldw	r4,-4(fp)
 4021864:	40217200 	call	4021720 <writeBool>
	fprintf(out,",");
 4021868:	e17fff17 	ldw	r5,-4(fp)
 402186c:	01000b04 	movi	r4,44
 4021870:	4023e340 	call	4023e34 <fputc>
	writeBool(out,"showCardsMe",outputData.showCardsMe);
 4021874:	00800034 	movhi	r2,0
 4021878:	10897b17 	ldw	r2,9708(r2)
 402187c:	100d883a 	mov	r6,r2
 4021880:	01400034 	movhi	r5,0
 4021884:	29405e04 	addi	r5,r5,376
 4021888:	e13fff17 	ldw	r4,-4(fp)
 402188c:	40217200 	call	4021720 <writeBool>
	fprintf(out,",");
 4021890:	e17fff17 	ldw	r5,-4(fp)
 4021894:	01000b04 	movi	r4,44
 4021898:	4023e340 	call	4023e34 <fputc>
	writeBool(out,"showCardsIfPeek",outputData.showCardsEveryone);
 402189c:	00800034 	movhi	r2,0
 40218a0:	10897c17 	ldw	r2,9712(r2)
 40218a4:	100d883a 	mov	r6,r2
 40218a8:	01400034 	movhi	r5,0
 40218ac:	29406104 	addi	r5,r5,388
 40218b0:	e13fff17 	ldw	r4,-4(fp)
 40218b4:	40217200 	call	4021720 <writeBool>
	fprintf(out,",");
 40218b8:	e17fff17 	ldw	r5,-4(fp)
 40218bc:	01000b04 	movi	r4,44
 40218c0:	4023e340 	call	4023e34 <fputc>
	writeBool(out,"newTryPeek",outputData.newTryPeek);
 40218c4:	00800034 	movhi	r2,0
 40218c8:	10897d17 	ldw	r2,9716(r2)
 40218cc:	100d883a 	mov	r6,r2
 40218d0:	01400034 	movhi	r5,0
 40218d4:	29406504 	addi	r5,r5,404
 40218d8:	e13fff17 	ldw	r4,-4(fp)
 40218dc:	40217200 	call	4021720 <writeBool>
	fprintf(out,",");
 40218e0:	e17fff17 	ldw	r5,-4(fp)
 40218e4:	01000b04 	movi	r4,44
 40218e8:	4023e340 	call	4023e34 <fputc>
	writeInt(out,"newTryPeekPlayerNumber",outputData.newTryPeekPlayerNumber);
 40218ec:	00800034 	movhi	r2,0
 40218f0:	10897e17 	ldw	r2,9720(r2)
 40218f4:	100d883a 	mov	r6,r2
 40218f8:	01400034 	movhi	r5,0
 40218fc:	29406804 	addi	r5,r5,416
 4021900:	e13fff17 	ldw	r4,-4(fp)
 4021904:	40217900 	call	4021790 <writeInt>
	fprintf(out,",");
 4021908:	e17fff17 	ldw	r5,-4(fp)
 402190c:	01000b04 	movi	r4,44
 4021910:	4023e340 	call	4023e34 <fputc>
	writeString(out,"newMoveType",outputData.newMoveType);
 4021914:	00800034 	movhi	r2,0
 4021918:	10897f17 	ldw	r2,9724(r2)
 402191c:	100d883a 	mov	r6,r2
 4021920:	01400034 	movhi	r5,0
 4021924:	29406e04 	addi	r5,r5,440
 4021928:	e13fff17 	ldw	r4,-4(fp)
 402192c:	40217dc0 	call	40217dc <writeString>
	fprintf(out,",");
 4021930:	e17fff17 	ldw	r5,-4(fp)
 4021934:	01000b04 	movi	r4,44
 4021938:	4023e340 	call	4023e34 <fputc>
	writeInt(out,"newBetAmount",outputData.newBetAmount);
 402193c:	00800034 	movhi	r2,0
 4021940:	10898017 	ldw	r2,9728(r2)
 4021944:	100d883a 	mov	r6,r2
 4021948:	01400034 	movhi	r5,0
 402194c:	29407104 	addi	r5,r5,452
 4021950:	e13fff17 	ldw	r4,-4(fp)
 4021954:	40217900 	call	4021790 <writeInt>
	fprintf(out,"}");
 4021958:	e17fff17 	ldw	r5,-4(fp)
 402195c:	01001f44 	movi	r4,125
 4021960:	4023e340 	call	4023e34 <fputc>
}
 4021964:	0001883a 	nop
 4021968:	e037883a 	mov	sp,fp
 402196c:	dfc00117 	ldw	ra,4(sp)
 4021970:	df000017 	ldw	fp,0(sp)
 4021974:	dec00204 	addi	sp,sp,8
 4021978:	f800283a 	ret

0402197c <print_dec>:
 */

#include "printDec.h"

void print_dec(int dig, int base)
{
 402197c:	defffc04 	addi	sp,sp,-16
 4021980:	df000315 	stw	fp,12(sp)
 4021984:	df000304 	addi	fp,sp,12
 4021988:	e13ffe15 	stw	r4,-8(fp)
 402198c:	e17ffd15 	stw	r5,-12(fp)
 4021990:	e0bffe17 	ldw	r2,-8(fp)
 4021994:	108002e8 	cmpgeui	r2,r2,11
 4021998:	1000311e 	bne	r2,zero,4021a60 <print_dec+0xe4>
 402199c:	e0bffe17 	ldw	r2,-8(fp)
 40219a0:	100690ba 	slli	r3,r2,2
 40219a4:	008100b4 	movhi	r2,1026
 40219a8:	1885883a 	add	r2,r3,r2
 40219ac:	10866d17 	ldw	r2,6580(r2)
 40219b0:	1000683a 	jmp	r2
 40219b4:	040219e0 	cmpeqi	r16,zero,2151
 40219b8:	040219ec 	andhi	r16,zero,2151
 40219bc:	040219f8 	rdprs	r16,zero,2151
 40219c0:	04021a04 	movi	r16,2152
 40219c4:	04021a10 	cmplti	r16,zero,2152
 40219c8:	04021a1c 	xori	r16,zero,2152
 40219cc:	04021a28 	cmpgeui	r16,zero,2152
 40219d0:	04021a34 	movhi	r16,2152
 40219d4:	04021a40 	call	4021a4 <_gp+0x3f7c74>
 40219d8:	04021a48 	cmpgei	r16,zero,2153
 40219dc:	04021a54 	movui	r16,2153
	int prod;
 	switch(dig){
 			case 0: prod = 0b1000000; break;
 40219e0:	00801004 	movi	r2,64
 40219e4:	e0bfff15 	stw	r2,-4(fp)
 40219e8:	00001d06 	br	4021a60 <print_dec+0xe4>
 			case 1: prod = 0b1111001; break;
 40219ec:	00801e44 	movi	r2,121
 40219f0:	e0bfff15 	stw	r2,-4(fp)
 40219f4:	00001a06 	br	4021a60 <print_dec+0xe4>
 			case 2: prod = 0b0100100; break;
 40219f8:	00800904 	movi	r2,36
 40219fc:	e0bfff15 	stw	r2,-4(fp)
 4021a00:	00001706 	br	4021a60 <print_dec+0xe4>
 			case 3: prod = 0b0110000; break;
 4021a04:	00800c04 	movi	r2,48
 4021a08:	e0bfff15 	stw	r2,-4(fp)
 4021a0c:	00001406 	br	4021a60 <print_dec+0xe4>
 			case 4: prod = 0b0011001; break;
 4021a10:	00800644 	movi	r2,25
 4021a14:	e0bfff15 	stw	r2,-4(fp)
 4021a18:	00001106 	br	4021a60 <print_dec+0xe4>
 			case 5: prod = 0b0010010; break;
 4021a1c:	00800484 	movi	r2,18
 4021a20:	e0bfff15 	stw	r2,-4(fp)
 4021a24:	00000e06 	br	4021a60 <print_dec+0xe4>
 			case 6: prod = 0b0000010; break;
 4021a28:	00800084 	movi	r2,2
 4021a2c:	e0bfff15 	stw	r2,-4(fp)
 4021a30:	00000b06 	br	4021a60 <print_dec+0xe4>
 			case 7: prod = 0b1111000; break;
 4021a34:	00801e04 	movi	r2,120
 4021a38:	e0bfff15 	stw	r2,-4(fp)
 4021a3c:	00000806 	br	4021a60 <print_dec+0xe4>
 			case 8: prod = 0b0000000; break;
 4021a40:	e03fff15 	stw	zero,-4(fp)
 4021a44:	00000606 	br	4021a60 <print_dec+0xe4>
 			case 9: prod = 0b0011000; break;
 4021a48:	00800604 	movi	r2,24
 4021a4c:	e0bfff15 	stw	r2,-4(fp)
 4021a50:	00000306 	br	4021a60 <print_dec+0xe4>
 			case 10: prod = 0b1111111; break;
 4021a54:	00801fc4 	movi	r2,127
 4021a58:	e0bfff15 	stw	r2,-4(fp)
 4021a5c:	0001883a 	nop
 4021a60:	e0bffd17 	ldw	r2,-12(fp)
 4021a64:	108001a8 	cmpgeui	r2,r2,6
 4021a68:	1000241e 	bne	r2,zero,4021afc <print_dec+0x180>
 4021a6c:	e0bffd17 	ldw	r2,-12(fp)
 4021a70:	100690ba 	slli	r3,r2,2
 4021a74:	008100b4 	movhi	r2,1026
 4021a78:	1885883a 	add	r2,r3,r2
 4021a7c:	1086a117 	ldw	r2,6788(r2)
 4021a80:	1000683a 	jmp	r2
 4021a84:	04021a9c 	xori	r16,zero,2154
 4021a88:	04021aac 	andhi	r16,zero,2154
 4021a8c:	04021abc 	xorhi	r16,zero,2154
 4021a90:	04021acc 	andi	r16,zero,2155
 4021a94:	04021adc 	xori	r16,zero,2155
 4021a98:	04021aec 	andhi	r16,zero,2155

 	}
	switch(base){
 			case 0: IOWR_ALTERA_AVALON_PIO_DATA(HEX_0_BASE, prod); break;
 4021a9c:	e0ffff17 	ldw	r3,-4(fp)
 4021aa0:	00810034 	movhi	r2,1024
 4021aa4:	10c01435 	stwio	r3,80(r2)
 4021aa8:	00001406 	br	4021afc <print_dec+0x180>
 			case 1: IOWR_ALTERA_AVALON_PIO_DATA(HEX_1_BASE, prod); break;
 4021aac:	e0ffff17 	ldw	r3,-4(fp)
 4021ab0:	00810034 	movhi	r2,1024
 4021ab4:	10c01035 	stwio	r3,64(r2)
 4021ab8:	00001006 	br	4021afc <print_dec+0x180>
 			case 2: IOWR_ALTERA_AVALON_PIO_DATA(HEX_2_BASE, prod); break;
 4021abc:	e0ffff17 	ldw	r3,-4(fp)
 4021ac0:	00810034 	movhi	r2,1024
 4021ac4:	10c00c35 	stwio	r3,48(r2)
 4021ac8:	00000c06 	br	4021afc <print_dec+0x180>
 			case 3: IOWR_ALTERA_AVALON_PIO_DATA(HEX_3_BASE, prod); break;
 4021acc:	e0ffff17 	ldw	r3,-4(fp)
 4021ad0:	00810034 	movhi	r2,1024
 4021ad4:	10c00835 	stwio	r3,32(r2)
 4021ad8:	00000806 	br	4021afc <print_dec+0x180>
 			case 4: IOWR_ALTERA_AVALON_PIO_DATA(HEX_4_BASE, prod); break;
 4021adc:	e0ffff17 	ldw	r3,-4(fp)
 4021ae0:	00810034 	movhi	r2,1024
 4021ae4:	10c00435 	stwio	r3,16(r2)
 4021ae8:	00000406 	br	4021afc <print_dec+0x180>
 			case 5: IOWR_ALTERA_AVALON_PIO_DATA(HEX_5_BASE, prod); break;
 4021aec:	e0ffff17 	ldw	r3,-4(fp)
 4021af0:	00810034 	movhi	r2,1024
 4021af4:	10c00035 	stwio	r3,0(r2)
 4021af8:	0001883a 	nop
 			}

}
 4021afc:	0001883a 	nop
 4021b00:	e037883a 	mov	sp,fp
 4021b04:	df000017 	ldw	fp,0(sp)
 4021b08:	dec00104 	addi	sp,sp,4
 4021b0c:	f800283a 	ret

04021b10 <clear_dec>:

void clear_dec()
{
 4021b10:	deffff04 	addi	sp,sp,-4
 4021b14:	df000015 	stw	fp,0(sp)
 4021b18:	d839883a 	mov	fp,sp
	 IOWR_ALTERA_AVALON_PIO_DATA(HEX_0_BASE, 0b1111111);
 4021b1c:	00c01fc4 	movi	r3,127
 4021b20:	00810034 	movhi	r2,1024
 4021b24:	10c01435 	stwio	r3,80(r2)
	 IOWR_ALTERA_AVALON_PIO_DATA(HEX_1_BASE, 0b1111111);
 4021b28:	00c01fc4 	movi	r3,127
 4021b2c:	00810034 	movhi	r2,1024
 4021b30:	10c01035 	stwio	r3,64(r2)
	 IOWR_ALTERA_AVALON_PIO_DATA(HEX_2_BASE, 0b1111111);
 4021b34:	00c01fc4 	movi	r3,127
 4021b38:	00810034 	movhi	r2,1024
 4021b3c:	10c00c35 	stwio	r3,48(r2)
	 IOWR_ALTERA_AVALON_PIO_DATA(HEX_3_BASE, 0b1111111);
 4021b40:	00c01fc4 	movi	r3,127
 4021b44:	00810034 	movhi	r2,1024
 4021b48:	10c00835 	stwio	r3,32(r2)
	 IOWR_ALTERA_AVALON_PIO_DATA(HEX_4_BASE, 0b1111111);
 4021b4c:	00c01fc4 	movi	r3,127
 4021b50:	00810034 	movhi	r2,1024
 4021b54:	10c00435 	stwio	r3,16(r2)
	 IOWR_ALTERA_AVALON_PIO_DATA(HEX_5_BASE, 0b1111111);
 4021b58:	00c01fc4 	movi	r3,127
 4021b5c:	00810034 	movhi	r2,1024
 4021b60:	10c00035 	stwio	r3,0(r2)
}
 4021b64:	0001883a 	nop
 4021b68:	e037883a 	mov	sp,fp
 4021b6c:	df000017 	ldw	fp,0(sp)
 4021b70:	dec00104 	addi	sp,sp,4
 4021b74:	f800283a 	ret

04021b78 <openFP>:
#include "jsonDecode.h"
#include "jsonEncode.h"

FILE* fp;

int openFP(){
 4021b78:	defffe04 	addi	sp,sp,-8
 4021b7c:	dfc00115 	stw	ra,4(sp)
 4021b80:	df000015 	stw	fp,0(sp)
 4021b84:	d839883a 	mov	fp,sp
	fp = fopen ("/dev/jtag_uart", "r+");
 4021b88:	01400034 	movhi	r5,0
 4021b8c:	29407504 	addi	r5,r5,468
 4021b90:	01000034 	movhi	r4,0
 4021b94:	21007604 	addi	r4,r4,472
 4021b98:	4023d880 	call	4023d88 <fopen>
 4021b9c:	d0a01015 	stw	r2,-32704(gp)
	if(!fp)
 4021ba0:	d0a01017 	ldw	r2,-32704(gp)
 4021ba4:	1000021e 	bne	r2,zero,4021bb0 <openFP+0x38>
		return 1;
 4021ba8:	00800044 	movi	r2,1
 4021bac:	00000106 	br	4021bb4 <openFP+0x3c>
	return 0;
 4021bb0:	0005883a 	mov	r2,zero
}
 4021bb4:	e037883a 	mov	sp,fp
 4021bb8:	dfc00117 	ldw	ra,4(sp)
 4021bbc:	df000017 	ldw	fp,0(sp)
 4021bc0:	dec00204 	addi	sp,sp,8
 4021bc4:	f800283a 	ret

04021bc8 <closeFP>:

void closeFP(){
 4021bc8:	defffe04 	addi	sp,sp,-8
 4021bcc:	dfc00115 	stw	ra,4(sp)
 4021bd0:	df000015 	stw	fp,0(sp)
 4021bd4:	d839883a 	mov	fp,sp
	fprintf(fp, "Closing the JTAG UART file handle.\n %c",0x4);
 4021bd8:	d0a01017 	ldw	r2,-32704(gp)
 4021bdc:	01800104 	movi	r6,4
 4021be0:	01400034 	movhi	r5,0
 4021be4:	29407a04 	addi	r5,r5,488
 4021be8:	1009883a 	mov	r4,r2
 4021bec:	4023dc80 	call	4023dc8 <fprintf>
	fclose(fp);
 4021bf0:	d0a01017 	ldw	r2,-32704(gp)
 4021bf4:	1009883a 	mov	r4,r2
 4021bf8:	40235800 	call	4023580 <fclose>
}
 4021bfc:	0001883a 	nop
 4021c00:	e037883a 	mov	sp,fp
 4021c04:	dfc00117 	ldw	ra,4(sp)
 4021c08:	df000017 	ldw	fp,0(sp)
 4021c0c:	dec00204 	addi	sp,sp,8
 4021c10:	f800283a 	ret

04021c14 <requestLoop>:

void requestLoop(){
 4021c14:	defffc04 	addi	sp,sp,-16
 4021c18:	dfc00315 	stw	ra,12(sp)
 4021c1c:	df000215 	stw	fp,8(sp)
 4021c20:	df000204 	addi	fp,sp,8
	char prompt = 0;
 4021c24:	e03ffec5 	stb	zero,-5(fp)
	if (fp) {
 4021c28:	d0a01017 	ldw	r2,-32704(gp)
 4021c2c:	10007a26 	beq	r2,zero,4021e18 <requestLoop+0x204>
//			inputData.moneyAvailableAmount = 12345;
//			inputData.relativeCardScore = 50;
//			outputData.newBetAmount = 0;

			// read input
			if(readInput(fp, &inputData)){
 4021c30:	d0a01017 	ldw	r2,-32704(gp)
 4021c34:	01400034 	movhi	r5,0
 4021c38:	29496d04 	addi	r5,r5,9652
 4021c3c:	1009883a 	mov	r4,r2
 4021c40:	40214680 	call	4021468 <readInput>
 4021c44:	10000926 	beq	r2,zero,4021c6c <requestLoop+0x58>
				fprintf(stderr, "ERROR: Unable to parse input json.\n");
 4021c48:	d0a00217 	ldw	r2,-32760(gp)
 4021c4c:	10800317 	ldw	r2,12(r2)
 4021c50:	100f883a 	mov	r7,r2
 4021c54:	018008c4 	movi	r6,35
 4021c58:	01400044 	movi	r5,1
 4021c5c:	01000034 	movhi	r4,0
 4021c60:	21008404 	addi	r4,r4,528
 4021c64:	4024a580 	call	4024a58 <fwrite>
				return;
 4021c68:	00006b06 	br	4021e18 <requestLoop+0x204>
			}

			// process input strings
			inputData.allowFold = 0;
 4021c6c:	00800034 	movhi	r2,0
 4021c70:	10097515 	stw	zero,9684(r2)
			inputData.allowCheck = 0;
 4021c74:	00800034 	movhi	r2,0
 4021c78:	10097615 	stw	zero,9688(r2)
			inputData.allowBet = 0;
 4021c7c:	00800034 	movhi	r2,0
 4021c80:	10097715 	stw	zero,9692(r2)
			inputData.allowCall = 0;
 4021c84:	00800034 	movhi	r2,0
 4021c88:	10097815 	stw	zero,9696(r2)
			inputData.allowRaise = 0;
 4021c8c:	00800034 	movhi	r2,0
 4021c90:	10097915 	stw	zero,9700(r2)
			for(int i = 0; i < inputData.aviablableNextMovesCount; i++){
 4021c94:	e03fff15 	stw	zero,-4(fp)
 4021c98:	00004e06 	br	4021dd4 <requestLoop+0x1c0>
				if(!strcmp(inputData.availableNextMoves[i], "fold")){
 4021c9c:	00800034 	movhi	r2,0
 4021ca0:	10c96f17 	ldw	r3,9660(r2)
 4021ca4:	e0bfff17 	ldw	r2,-4(fp)
 4021ca8:	100490ba 	slli	r2,r2,2
 4021cac:	1885883a 	add	r2,r3,r2
 4021cb0:	10800017 	ldw	r2,0(r2)
 4021cb4:	01400034 	movhi	r5,0
 4021cb8:	29408d04 	addi	r5,r5,564
 4021cbc:	1009883a 	mov	r4,r2
 4021cc0:	4025fcc0 	call	4025fcc <strcmp>
 4021cc4:	1000041e 	bne	r2,zero,4021cd8 <requestLoop+0xc4>
					inputData.allowFold = 1;
 4021cc8:	00c00044 	movi	r3,1
 4021ccc:	00800034 	movhi	r2,0
 4021cd0:	10c97515 	stw	r3,9684(r2)
					continue;
 4021cd4:	00003c06 	br	4021dc8 <requestLoop+0x1b4>
				}
				else if(!strcmp(inputData.availableNextMoves[i], "check")){
 4021cd8:	00800034 	movhi	r2,0
 4021cdc:	10c96f17 	ldw	r3,9660(r2)
 4021ce0:	e0bfff17 	ldw	r2,-4(fp)
 4021ce4:	100490ba 	slli	r2,r2,2
 4021ce8:	1885883a 	add	r2,r3,r2
 4021cec:	10800017 	ldw	r2,0(r2)
 4021cf0:	01400034 	movhi	r5,0
 4021cf4:	29408f04 	addi	r5,r5,572
 4021cf8:	1009883a 	mov	r4,r2
 4021cfc:	4025fcc0 	call	4025fcc <strcmp>
 4021d00:	1000041e 	bne	r2,zero,4021d14 <requestLoop+0x100>
					inputData.allowCheck = 1;
 4021d04:	00c00044 	movi	r3,1
 4021d08:	00800034 	movhi	r2,0
 4021d0c:	10c97615 	stw	r3,9688(r2)
					continue;
 4021d10:	00002d06 	br	4021dc8 <requestLoop+0x1b4>
				}
				else if(!strcmp(inputData.availableNextMoves[i], "bet")){
 4021d14:	00800034 	movhi	r2,0
 4021d18:	10c96f17 	ldw	r3,9660(r2)
 4021d1c:	e0bfff17 	ldw	r2,-4(fp)
 4021d20:	100490ba 	slli	r2,r2,2
 4021d24:	1885883a 	add	r2,r3,r2
 4021d28:	10800017 	ldw	r2,0(r2)
 4021d2c:	01400034 	movhi	r5,0
 4021d30:	29409104 	addi	r5,r5,580
 4021d34:	1009883a 	mov	r4,r2
 4021d38:	4025fcc0 	call	4025fcc <strcmp>
 4021d3c:	1000041e 	bne	r2,zero,4021d50 <requestLoop+0x13c>
					inputData.allowBet = 1;
 4021d40:	00c00044 	movi	r3,1
 4021d44:	00800034 	movhi	r2,0
 4021d48:	10c97715 	stw	r3,9692(r2)
					continue;
 4021d4c:	00001e06 	br	4021dc8 <requestLoop+0x1b4>
				}
				else if(!strcmp(inputData.availableNextMoves[i], "call")){
 4021d50:	00800034 	movhi	r2,0
 4021d54:	10c96f17 	ldw	r3,9660(r2)
 4021d58:	e0bfff17 	ldw	r2,-4(fp)
 4021d5c:	100490ba 	slli	r2,r2,2
 4021d60:	1885883a 	add	r2,r3,r2
 4021d64:	10800017 	ldw	r2,0(r2)
 4021d68:	01400034 	movhi	r5,0
 4021d6c:	29409204 	addi	r5,r5,584
 4021d70:	1009883a 	mov	r4,r2
 4021d74:	4025fcc0 	call	4025fcc <strcmp>
 4021d78:	1000041e 	bne	r2,zero,4021d8c <requestLoop+0x178>
					inputData.allowCall = 1;
 4021d7c:	00c00044 	movi	r3,1
 4021d80:	00800034 	movhi	r2,0
 4021d84:	10c97815 	stw	r3,9696(r2)
					continue;
 4021d88:	00000f06 	br	4021dc8 <requestLoop+0x1b4>
				}
				else if(!strcmp(inputData.availableNextMoves[i], "raise")){
 4021d8c:	00800034 	movhi	r2,0
 4021d90:	10c96f17 	ldw	r3,9660(r2)
 4021d94:	e0bfff17 	ldw	r2,-4(fp)
 4021d98:	100490ba 	slli	r2,r2,2
 4021d9c:	1885883a 	add	r2,r3,r2
 4021da0:	10800017 	ldw	r2,0(r2)
 4021da4:	01400034 	movhi	r5,0
 4021da8:	29409404 	addi	r5,r5,592
 4021dac:	1009883a 	mov	r4,r2
 4021db0:	4025fcc0 	call	4025fcc <strcmp>
 4021db4:	1000041e 	bne	r2,zero,4021dc8 <requestLoop+0x1b4>
					inputData.allowRaise = 1;
 4021db8:	00c00044 	movi	r3,1
 4021dbc:	00800034 	movhi	r2,0
 4021dc0:	10c97915 	stw	r3,9700(r2)
					continue;
 4021dc4:	0001883a 	nop
			for(int i = 0; i < inputData.aviablableNextMovesCount; i++){
 4021dc8:	e0bfff17 	ldw	r2,-4(fp)
 4021dcc:	10800044 	addi	r2,r2,1
 4021dd0:	e0bfff15 	stw	r2,-4(fp)
 4021dd4:	00800034 	movhi	r2,0
 4021dd8:	10897017 	ldw	r2,9664(r2)
 4021ddc:	e0ffff17 	ldw	r3,-4(fp)
 4021de0:	18bfae16 	blt	r3,r2,4021c9c <requestLoop+0x88>
				}
			}

			// print output;
			printf("<data>\n");
 4021de4:	01000034 	movhi	r4,0
 4021de8:	21009604 	addi	r4,r4,600
 4021dec:	4025b4c0 	call	4025b4c <puts>
			writeOutput(fp, &outputData);
 4021df0:	d0a01017 	ldw	r2,-32704(gp)
 4021df4:	01400034 	movhi	r5,0
 4021df8:	29497a04 	addi	r5,r5,9704
 4021dfc:	1009883a 	mov	r4,r2
 4021e00:	40218280 	call	4021828 <writeOutput>

			// resetting values:
			outputData.isActiveData = 0;
 4021e04:	00800034 	movhi	r2,0
 4021e08:	10097a15 	stw	zero,9704(r2)
			outputData.newTryPeek = 0;
 4021e0c:	00800034 	movhi	r2,0
 4021e10:	10097d15 	stw	zero,9716(r2)
			if(readInput(fp, &inputData)){
 4021e14:	003f8606 	br	4021c30 <requestLoop+0x1c>
		}
	}
}
 4021e18:	e037883a 	mov	sp,fp
 4021e1c:	dfc00117 	ldw	ra,4(sp)
 4021e20:	df000017 	ldw	fp,0(sp)
 4021e24:	dec00204 	addi	sp,sp,8
 4021e28:	f800283a 	ret

04021e2c <setupAccelerometer>:
 *      Author: IBricchi
 */

#include "setup.h"

int setupAccelerometer(){
 4021e2c:	defffe04 	addi	sp,sp,-8
 4021e30:	dfc00115 	stw	ra,4(sp)
 4021e34:	df000015 	stw	fp,0(sp)
 4021e38:	d839883a 	mov	fp,sp
	dataSrc.acc = alt_up_accelerometer_spi_open_dev("/dev/accelerometer_spi");
 4021e3c:	01000034 	movhi	r4,0
 4021e40:	21009804 	addi	r4,r4,608
 4021e44:	4032a540 	call	4032a54 <alt_up_accelerometer_spi_open_dev>
 4021e48:	d0a00f15 	stw	r2,-32708(gp)
	if (dataSrc.acc == NULL) { // if return 1, check if the spi ip name is "accelerometer_spi"
 4021e4c:	d0a00f17 	ldw	r2,-32708(gp)
 4021e50:	1000051e 	bne	r2,zero,4021e68 <setupAccelerometer+0x3c>
		printf("ERROR: Unable to access accelerometer.\n");
 4021e54:	01000034 	movhi	r4,0
 4021e58:	21009e04 	addi	r4,r4,632
 4021e5c:	4025b4c0 	call	4025b4c <puts>
		return 1;
 4021e60:	00800044 	movi	r2,1
 4021e64:	00000106 	br	4021e6c <setupAccelerometer+0x40>
	}
	return 0;
 4021e68:	0005883a 	mov	r2,zero
}
 4021e6c:	e037883a 	mov	sp,fp
 4021e70:	dfc00117 	ldw	ra,4(sp)
 4021e74:	df000017 	ldw	fp,0(sp)
 4021e78:	dec00204 	addi	sp,sp,8
 4021e7c:	f800283a 	ret

04021e80 <setupPeripherals>:

int setupPeripherals(){
 4021e80:	defffe04 	addi	sp,sp,-8
 4021e84:	dfc00115 	stw	ra,4(sp)
 4021e88:	df000015 	stw	fp,0(sp)
 4021e8c:	d839883a 	mov	fp,sp
	// try to setup accelerometer
	if(setupAccelerometer())
 4021e90:	4021e2c0 	call	4021e2c <setupAccelerometer>
 4021e94:	10000226 	beq	r2,zero,4021ea0 <setupPeripherals+0x20>
		return 1;
 4021e98:	00800044 	movi	r2,1
 4021e9c:	00000106 	br	4021ea4 <setupPeripherals+0x24>

	return 0;
 4021ea0:	0005883a 	mov	r2,zero
}
 4021ea4:	e037883a 	mov	sp,fp
 4021ea8:	dfc00117 	ldw	ra,4(sp)
 4021eac:	df000017 	ldw	fp,0(sp)
 4021eb0:	dec00204 	addi	sp,sp,8
 4021eb4:	f800283a 	ret

04021eb8 <shake>:

#include "shake.h"


int shake(alt_32 * count, alt_32 * previous_value, alt_32 new_data )
{
 4021eb8:	defffb04 	addi	sp,sp,-20
 4021ebc:	df000415 	stw	fp,16(sp)
 4021ec0:	df000404 	addi	fp,sp,16
 4021ec4:	e13ffe15 	stw	r4,-8(fp)
 4021ec8:	e17ffd15 	stw	r5,-12(fp)
 4021ecc:	e1bffc15 	stw	r6,-16(fp)
	alt_32 intermediate = 0;
 4021ed0:	e03fff15 	stw	zero,-4(fp)

	if(*count == 10000 )
 4021ed4:	e0bffe17 	ldw	r2,-8(fp)
 4021ed8:	10800017 	ldw	r2,0(r2)
 4021edc:	1089c418 	cmpnei	r2,r2,10000
 4021ee0:	10000e1e 	bne	r2,zero,4021f1c <shake+0x64>
	{
		intermediate = abs(*previous_value - new_data);
 4021ee4:	e0bffd17 	ldw	r2,-12(fp)
 4021ee8:	10c00017 	ldw	r3,0(r2)
 4021eec:	e0bffc17 	ldw	r2,-16(fp)
 4021ef0:	1885c83a 	sub	r2,r3,r2
 4021ef4:	1000010e 	bge	r2,zero,4021efc <shake+0x44>
 4021ef8:	0085c83a 	sub	r2,zero,r2
 4021efc:	e0bfff15 	stw	r2,-4(fp)
		if(intermediate > 10)
 4021f00:	e0bfff17 	ldw	r2,-4(fp)
 4021f04:	108002d0 	cmplti	r2,r2,11
 4021f08:	1000021e 	bne	r2,zero,4021f14 <shake+0x5c>
		{return 1;}
 4021f0c:	00800044 	movi	r2,1
 4021f10:	00000706 	br	4021f30 <shake+0x78>
		else
		{return 0;}
 4021f14:	0005883a 	mov	r2,zero
 4021f18:	00000506 	br	4021f30 <shake+0x78>

		*count = -1;
		*previous_value = new_data;
	}

	*count = *count + 1;
 4021f1c:	e0bffe17 	ldw	r2,-8(fp)
 4021f20:	10800017 	ldw	r2,0(r2)
 4021f24:	10c00044 	addi	r3,r2,1
 4021f28:	e0bffe17 	ldw	r2,-8(fp)
 4021f2c:	10c00015 	stw	r3,0(r2)


}
 4021f30:	e037883a 	mov	sp,fp
 4021f34:	df000017 	ldw	fp,0(sp)
 4021f38:	dec00104 	addi	sp,sp,4
 4021f3c:	f800283a 	ret

04021f40 <sys_timer_isr>:

extern FILE* fp;

FilterData filterData;
BetData betData = {5,0,0,{0},{0},0};
void sys_timer_isr() {
 4021f40:	defff704 	addi	sp,sp,-36
 4021f44:	dfc00815 	stw	ra,32(sp)
 4021f48:	df000715 	stw	fp,28(sp)
 4021f4c:	df000704 	addi	fp,sp,28
    IOWR_ALTERA_AVALON_TIMER_STATUS(TIMER_BASE, 0);
 4021f50:	0007883a 	mov	r3,zero
 4021f54:	00810134 	movhi	r2,1028
 4021f58:	10c40035 	stwio	r3,4096(r2)

    if (pwm > PWM_PERIOD) {
 4021f5c:	d0a00003 	ldbu	r2,-32768(gp)
 4021f60:	10803fcc 	andi	r2,r2,255
 4021f64:	10800470 	cmpltui	r2,r2,17
 4021f68:	1001181e 	bne	r2,zero,40223cc <sys_timer_isr+0x48c>
		// get data
		alt_up_accelerometer_spi_read_x_axis(dataSrc.acc, & data.acc_x_read);
 4021f6c:	d0a00f17 	ldw	r2,-32708(gp)
 4021f70:	01400034 	movhi	r5,0
 4021f74:	29496904 	addi	r5,r5,9636
 4021f78:	1009883a 	mov	r4,r2
 4021f7c:	4032ba40 	call	4032ba4 <alt_up_accelerometer_spi_read_x_axis>
		alt_up_accelerometer_spi_read_y_axis(dataSrc.acc, & data.acc_y_read);
 4021f80:	d0a00f17 	ldw	r2,-32708(gp)
 4021f84:	01400034 	movhi	r5,0
 4021f88:	29496a04 	addi	r5,r5,9640
 4021f8c:	1009883a 	mov	r4,r2
 4021f90:	4032c780 	call	4032c78 <alt_up_accelerometer_spi_read_y_axis>
		alt_up_accelerometer_spi_read_z_axis(dataSrc.acc, & data.acc_z_read);
 4021f94:	d0a00f17 	ldw	r2,-32708(gp)
 4021f98:	01400034 	movhi	r5,0
 4021f9c:	29496b04 	addi	r5,r5,9644
 4021fa0:	1009883a 	mov	r4,r2
 4021fa4:	4032d4c0 	call	4032d4c <alt_up_accelerometer_spi_read_z_axis>
		data.switch_read = IORD_ALTERA_AVALON_PIO_DATA(SWITCH_BASE);
 4021fa8:	00810034 	movhi	r2,1024
 4021fac:	10801c37 	ldwio	r2,112(r2)
 4021fb0:	1007883a 	mov	r3,r2
 4021fb4:	00800034 	movhi	r2,0
 4021fb8:	10c96c0d 	sth	r3,9648(r2)
		data.button_read = IORD_ALTERA_AVALON_PIO_DATA(BUTTON_BASE);
 4021fbc:	00810034 	movhi	r2,1024
 4021fc0:	10802037 	ldwio	r2,128(r2)
 4021fc4:	1007883a 	mov	r3,r2
 4021fc8:	00800034 	movhi	r2,0
 4021fcc:	10c96c85 	stb	r3,9650(r2)

		//Filtering x-axis values
		filt(filterData.xbuffer, data.acc_x_read, &filterData.xfiltered, 24);
 4021fd0:	00800034 	movhi	r2,0
 4021fd4:	10896917 	ldw	r2,9636(r2)
 4021fd8:	01c00604 	movi	r7,24
 4021fdc:	01800034 	movhi	r6,0
 4021fe0:	31899904 	addi	r6,r6,9828
 4021fe4:	100b883a 	mov	r5,r2
 4021fe8:	01000034 	movhi	r4,0
 4021fec:	21098104 	addi	r4,r4,9732
 4021ff0:	4020a5c0 	call	4020a5c <filt>
		//Filtering x-axis values
		filt(filterData.ybuffer, data.acc_y_read, &filterData.yfiltered, 24);
 4021ff4:	00800034 	movhi	r2,0
 4021ff8:	10896a17 	ldw	r2,9640(r2)
 4021ffc:	01c00604 	movi	r7,24
 4022000:	01800034 	movhi	r6,0
 4022004:	3189b204 	addi	r6,r6,9928
 4022008:	100b883a 	mov	r5,r2
 402200c:	01000034 	movhi	r4,0
 4022010:	21099a04 	addi	r4,r4,9832
 4022014:	4020a5c0 	call	4020a5c <filt>
		//Filtering x-axis values
		filt(filterData.zbuffer, data.acc_z_read, &filterData.zfiltered, 24);
 4022018:	00800034 	movhi	r2,0
 402201c:	10896b17 	ldw	r2,9644(r2)
 4022020:	01c00604 	movi	r7,24
 4022024:	01800034 	movhi	r6,0
 4022028:	3189cb04 	addi	r6,r6,10028
 402202c:	100b883a 	mov	r5,r2
 4022030:	01000034 	movhi	r4,0
 4022034:	2109b304 	addi	r4,r4,9932
 4022038:	4020a5c0 	call	4020a5c <filt>
		// Takes yfiltered and relative card score  	  //
		// Returns 2 bits, 				  //
		// LSB is show cards me		          //
		// MSB is show cards all 			  //

		int peek = ALT_CI_TILT_0((((int)filterData.yfiltered)+30), inputData.relativeCardScore);
 402203c:	00800034 	movhi	r2,0
 4022040:	1089b217 	ldw	r2,9928(r2)
 4022044:	1009883a 	mov	r4,r2
 4022048:	40232680 	call	4023268 <__fixsfsi>
 402204c:	10800784 	addi	r2,r2,30
 4022050:	00c00034 	movhi	r3,0
 4022054:	18c97317 	ldw	r3,9676(r3)
 4022058:	10c5c032 	custom	0,r2,r2,r3
 402205c:	e0bffe15 	stw	r2,-8(fp)
		outputData.showCardsMe = (peek & 0b01);
 4022060:	e0bffe17 	ldw	r2,-8(fp)
 4022064:	10c0004c 	andi	r3,r2,1
 4022068:	00800034 	movhi	r2,0
 402206c:	10c97b15 	stw	r3,9708(r2)
		outputData.showCardsEveryone = (peek & 0b10);    // If peek attempt calculations going on in hardware, need extra input from server
 4022070:	e0bffe17 	ldw	r2,-8(fp)
 4022074:	10c0008c 	andi	r3,r2,2
 4022078:	00800034 	movhi	r2,0
 402207c:	10c97c15 	stw	r3,9712(r2)
		//-----------------------------------------------//
		//            Peek attempt function 		  //
		//-----------------------------------------------//
		// checks is turn and button val		  //

		if(inputData.isTurn == 0 && data.button_read == 2)
 4022080:	00800034 	movhi	r2,0
 4022084:	10896d17 	ldw	r2,9652(r2)
 4022088:	1000081e 	bne	r2,zero,40220ac <sys_timer_isr+0x16c>
 402208c:	00800034 	movhi	r2,0
 4022090:	10896c83 	ldbu	r2,9650(r2)
 4022094:	10803fcc 	andi	r2,r2,255
 4022098:	10800098 	cmpnei	r2,r2,2
 402209c:	1000031e 	bne	r2,zero,40220ac <sys_timer_isr+0x16c>
		{
			outputData.newTryPeek = 1;
 40220a0:	00c00044 	movi	r3,1
 40220a4:	00800034 	movhi	r2,0
 40220a8:	10c97d15 	stw	r3,9716(r2)
		//-----------------------------------------------//
		// checks not folding or all in then runs bet 	  //
		// returns integer value of bet amount           //
		// only occurs during go			  //

		if(inputData.isTurn == 1)
 40220ac:	00800034 	movhi	r2,0
 40220b0:	10896d17 	ldw	r2,9652(r2)
 40220b4:	10800058 	cmpnei	r2,r2,1
 40220b8:	1000c21e 	bne	r2,zero,40223c4 <sys_timer_isr+0x484>
		{
			if(inputData.allowFold && data.button_read == 2){
 40220bc:	00800034 	movhi	r2,0
 40220c0:	10897517 	ldw	r2,9684(r2)
 40220c4:	10000d26 	beq	r2,zero,40220fc <sys_timer_isr+0x1bc>
 40220c8:	00800034 	movhi	r2,0
 40220cc:	10896c83 	ldbu	r2,9650(r2)
 40220d0:	10803fcc 	andi	r2,r2,255
 40220d4:	10800098 	cmpnei	r2,r2,2
 40220d8:	1000081e 	bne	r2,zero,40220fc <sys_timer_isr+0x1bc>
				outputData.newMoveType = "fold";
 40220dc:	00800034 	movhi	r2,0
 40220e0:	1080a804 	addi	r2,r2,672
 40220e4:	00c00034 	movhi	r3,0
 40220e8:	18897f15 	stw	r2,9724(r3)
				outputData.isActiveData = 1;
 40220ec:	00c00044 	movi	r3,1
 40220f0:	00800034 	movhi	r2,0
 40220f4:	10c97a15 	stw	r3,9704(r2)
 40220f8:	0000b206 	br	40223c4 <sys_timer_isr+0x484>
			}
			else if((inputData.allowCheck|inputData.allowCall) & ((data.switch_read & 0b0010000000) == 0b0010000000) & data.button_read == 1){
 40220fc:	00800034 	movhi	r2,0
 4022100:	10c97617 	ldw	r3,9688(r2)
 4022104:	00800034 	movhi	r2,0
 4022108:	10897817 	ldw	r2,9696(r2)
 402210c:	1886b03a 	or	r3,r3,r2
 4022110:	00800034 	movhi	r2,0
 4022114:	10896c0b 	ldhu	r2,9648(r2)
 4022118:	10bfffcc 	andi	r2,r2,65535
 402211c:	1080200c 	andi	r2,r2,128
 4022120:	1004c03a 	cmpne	r2,r2,zero
 4022124:	10803fcc 	andi	r2,r2,255
 4022128:	1886703a 	and	r3,r3,r2
 402212c:	00800034 	movhi	r2,0
 4022130:	10896c83 	ldbu	r2,9650(r2)
 4022134:	10803fcc 	andi	r2,r2,255
 4022138:	10800060 	cmpeqi	r2,r2,1
 402213c:	10803fcc 	andi	r2,r2,255
 4022140:	1884703a 	and	r2,r3,r2
 4022144:	10000e26 	beq	r2,zero,4022180 <sys_timer_isr+0x240>
				outputData.newMoveType = inputData.allowCheck?"check":"call";
 4022148:	00800034 	movhi	r2,0
 402214c:	10897617 	ldw	r2,9688(r2)
 4022150:	10000326 	beq	r2,zero,4022160 <sys_timer_isr+0x220>
 4022154:	00800034 	movhi	r2,0
 4022158:	1080aa04 	addi	r2,r2,680
 402215c:	00000206 	br	4022168 <sys_timer_isr+0x228>
 4022160:	00800034 	movhi	r2,0
 4022164:	1080ac04 	addi	r2,r2,688
 4022168:	00c00034 	movhi	r3,0
 402216c:	18897f15 	stw	r2,9724(r3)
				outputData.isActiveData = 1;
 4022170:	00c00044 	movi	r3,1
 4022174:	00800034 	movhi	r2,0
 4022178:	10c97a15 	stw	r3,9704(r2)
 402217c:	00009106 	br	40223c4 <sys_timer_isr+0x484>
			}
			else if(inputData.allowBet | inputData.allowRaise){
 4022180:	00800034 	movhi	r2,0
 4022184:	10c97717 	ldw	r3,9692(r2)
 4022188:	00800034 	movhi	r2,0
 402218c:	10897917 	ldw	r2,9700(r2)
 4022190:	1884b03a 	or	r2,r3,r2
 4022194:	10008b26 	beq	r2,zero,40223c4 <sys_timer_isr+0x484>
				if((data.switch_read & 0b0100000000) == 0b0100000000){
 4022198:	00800034 	movhi	r2,0
 402219c:	10896c0b 	ldhu	r2,9648(r2)
 40221a0:	10bfffcc 	andi	r2,r2,65535
 40221a4:	1080400c 	andi	r2,r2,256
 40221a8:	10001f26 	beq	r2,zero,4022228 <sys_timer_isr+0x2e8>
					betData.bet_total = Bet(&betData.bcount, &betData.segvalue, &betData.maxQ, filterData.xfiltered, data.switch_read, data.button_read, betData.m_digits, betData.bet_value);
 40221ac:	00800034 	movhi	r2,0
 40221b0:	10899917 	ldw	r2,9828(r2)
 40221b4:	1009883a 	mov	r4,r2
 40221b8:	40232680 	call	4023268 <__fixsfsi>
 40221bc:	100b883a 	mov	r5,r2
 40221c0:	00800034 	movhi	r2,0
 40221c4:	10896c0b 	ldhu	r2,9648(r2)
 40221c8:	10ffffcc 	andi	r3,r2,65535
 40221cc:	00800034 	movhi	r2,0
 40221d0:	10896c83 	ldbu	r2,9650(r2)
 40221d4:	11003fcc 	andi	r4,r2,255
 40221d8:	00800034 	movhi	r2,0
 40221dc:	10825204 	addi	r2,r2,2376
 40221e0:	d8800315 	stw	r2,12(sp)
 40221e4:	00800034 	movhi	r2,0
 40221e8:	10824c04 	addi	r2,r2,2352
 40221ec:	d8800215 	stw	r2,8(sp)
 40221f0:	d9000115 	stw	r4,4(sp)
 40221f4:	d8c00015 	stw	r3,0(sp)
 40221f8:	280f883a 	mov	r7,r5
 40221fc:	01800034 	movhi	r6,0
 4022200:	31824b04 	addi	r6,r6,2348
 4022204:	01400034 	movhi	r5,0
 4022208:	29424904 	addi	r5,r5,2340
 402220c:	01000034 	movhi	r4,0
 4022210:	21024a04 	addi	r4,r4,2344
 4022214:	402031c0 	call	402031c <Bet>
 4022218:	1007883a 	mov	r3,r2
 402221c:	00800034 	movhi	r2,0
 4022220:	10c25815 	stw	r3,2400(r2)
 4022224:	00004406 	br	4022338 <sys_timer_isr+0x3f8>
				}
				else{
					betData.segvalue = 5;
 4022228:	00c00144 	movi	r3,5
 402222c:	00800034 	movhi	r2,0
 4022230:	10c24915 	stw	r3,2340(r2)
					betData.bcount = 0;
 4022234:	00800034 	movhi	r2,0
 4022238:	10024a15 	stw	zero,2344(r2)
					betData.maxQ = 0;
 402223c:	00800034 	movhi	r2,0
 4022240:	10024b15 	stw	zero,2348(r2)
					betData.bet_total = 0;
 4022244:	00800034 	movhi	r2,0
 4022248:	10025815 	stw	zero,2400(r2)
					for(int i = 0; i < 6; i++){
 402224c:	e03fff15 	stw	zero,-4(fp)
 4022250:	00001206 	br	402229c <sys_timer_isr+0x35c>
						betData.bet_value[i] = 0;
 4022254:	e0bfff17 	ldw	r2,-4(fp)
 4022258:	10800244 	addi	r2,r2,9
 402225c:	100690ba 	slli	r3,r2,2
 4022260:	00800034 	movhi	r2,0
 4022264:	1885883a 	add	r2,r3,r2
 4022268:	10024915 	stw	zero,2340(r2)
						betData.m_digits[i] = 0;
 402226c:	e0bfff17 	ldw	r2,-4(fp)
 4022270:	108000c4 	addi	r2,r2,3
 4022274:	100690ba 	slli	r3,r2,2
 4022278:	00800034 	movhi	r2,0
 402227c:	1885883a 	add	r2,r3,r2
 4022280:	10024915 	stw	zero,2340(r2)
						print_dec(10, i);
 4022284:	e17fff17 	ldw	r5,-4(fp)
 4022288:	01000284 	movi	r4,10
 402228c:	402197c0 	call	402197c <print_dec>
					for(int i = 0; i < 6; i++){
 4022290:	e0bfff17 	ldw	r2,-4(fp)
 4022294:	10800044 	addi	r2,r2,1
 4022298:	e0bfff15 	stw	r2,-4(fp)
 402229c:	e0bfff17 	ldw	r2,-4(fp)
 40222a0:	10800190 	cmplti	r2,r2,6
 40222a4:	103feb1e 	bne	r2,zero,4022254 <sys_timer_isr+0x314>
					}
					digify(betData.m_digits, inputData.moneyAvailableAmount);
 40222a8:	00800034 	movhi	r2,0
 40222ac:	10897117 	ldw	r2,9668(r2)
 40222b0:	100b883a 	mov	r5,r2
 40222b4:	01000034 	movhi	r4,0
 40222b8:	21024c04 	addi	r4,r4,2352
 40222bc:	40206f00 	call	40206f0 <digify>
					betData.bet_total = Bet(&betData.bcount, &betData.segvalue, &betData.maxQ, filterData.xfiltered, data.switch_read, data.button_read, betData.m_digits, betData.bet_value);
 40222c0:	00800034 	movhi	r2,0
 40222c4:	10899917 	ldw	r2,9828(r2)
 40222c8:	1009883a 	mov	r4,r2
 40222cc:	40232680 	call	4023268 <__fixsfsi>
 40222d0:	100b883a 	mov	r5,r2
 40222d4:	00800034 	movhi	r2,0
 40222d8:	10896c0b 	ldhu	r2,9648(r2)
 40222dc:	10ffffcc 	andi	r3,r2,65535
 40222e0:	00800034 	movhi	r2,0
 40222e4:	10896c83 	ldbu	r2,9650(r2)
 40222e8:	11003fcc 	andi	r4,r2,255
 40222ec:	00800034 	movhi	r2,0
 40222f0:	10825204 	addi	r2,r2,2376
 40222f4:	d8800315 	stw	r2,12(sp)
 40222f8:	00800034 	movhi	r2,0
 40222fc:	10824c04 	addi	r2,r2,2352
 4022300:	d8800215 	stw	r2,8(sp)
 4022304:	d9000115 	stw	r4,4(sp)
 4022308:	d8c00015 	stw	r3,0(sp)
 402230c:	280f883a 	mov	r7,r5
 4022310:	01800034 	movhi	r6,0
 4022314:	31824b04 	addi	r6,r6,2348
 4022318:	01400034 	movhi	r5,0
 402231c:	29424904 	addi	r5,r5,2340
 4022320:	01000034 	movhi	r4,0
 4022324:	21024a04 	addi	r4,r4,2344
 4022328:	402031c0 	call	402031c <Bet>
 402232c:	1007883a 	mov	r3,r2
 4022330:	00800034 	movhi	r2,0
 4022334:	10c25815 	stw	r3,2400(r2)
				}
				if(data.button_read == 1){
 4022338:	00800034 	movhi	r2,0
 402233c:	10896c83 	ldbu	r2,9650(r2)
 4022340:	10803fcc 	andi	r2,r2,255
 4022344:	10800058 	cmpnei	r2,r2,1
 4022348:	10001e1e 	bne	r2,zero,40223c4 <sys_timer_isr+0x484>
					outputData.newMoveType = inputData.allowBet?"bet":"raise";
 402234c:	00800034 	movhi	r2,0
 4022350:	10897717 	ldw	r2,9692(r2)
 4022354:	10000326 	beq	r2,zero,4022364 <sys_timer_isr+0x424>
 4022358:	00800034 	movhi	r2,0
 402235c:	1080ae04 	addi	r2,r2,696
 4022360:	00000206 	br	402236c <sys_timer_isr+0x42c>
 4022364:	00800034 	movhi	r2,0
 4022368:	1080af04 	addi	r2,r2,700
 402236c:	00c00034 	movhi	r3,0
 4022370:	18897f15 	stw	r2,9724(r3)
					int b = betData.bet_total;
 4022374:	00800034 	movhi	r2,0
 4022378:	10825817 	ldw	r2,2400(r2)
 402237c:	e0bffd15 	stw	r2,-12(fp)
					if(b < inputData.moneyAvailableAmount && b >= inputData.minimumNextBetAmount)	// Fixing edge case
 4022380:	00800034 	movhi	r2,0
 4022384:	10897117 	ldw	r2,9668(r2)
 4022388:	e0fffd17 	ldw	r3,-12(fp)
 402238c:	18800b0e 	bge	r3,r2,40223bc <sys_timer_isr+0x47c>
 4022390:	00800034 	movhi	r2,0
 4022394:	10897217 	ldw	r2,9672(r2)
 4022398:	e0fffd17 	ldw	r3,-12(fp)
 402239c:	18800716 	blt	r3,r2,40223bc <sys_timer_isr+0x47c>
					{
						outputData.newBetAmount = b;
 40223a0:	e0fffd17 	ldw	r3,-12(fp)
 40223a4:	00800034 	movhi	r2,0
 40223a8:	10c98015 	stw	r3,9728(r2)
						outputData.isActiveData = 1;
 40223ac:	00c00044 	movi	r3,1
 40223b0:	00800034 	movhi	r2,0
 40223b4:	10c97a15 	stw	r3,9704(r2)
 40223b8:	00000206 	br	40223c4 <sys_timer_isr+0x484>
					}
					else
					{
						outputData.newBetAmount = 0;
 40223bc:	00800034 	movhi	r2,0
 40223c0:	10098015 	stw	zero,9728(r2)
					}
				}
			}
		}
		pwm = 0;
 40223c4:	d0200005 	stb	zero,-32768(gp)
    }
    else{
    	pwm++;
    }
}
 40223c8:	00000306 	br	40223d8 <sys_timer_isr+0x498>
    	pwm++;
 40223cc:	d0a00003 	ldbu	r2,-32768(gp)
 40223d0:	10800044 	addi	r2,r2,1
 40223d4:	d0a00005 	stb	r2,-32768(gp)
}
 40223d8:	0001883a 	nop
 40223dc:	e037883a 	mov	sp,fp
 40223e0:	dfc00117 	ldw	ra,4(sp)
 40223e4:	df000017 	ldw	fp,0(sp)
 40223e8:	dec00204 	addi	sp,sp,8
 40223ec:	f800283a 	ret

040223f0 <timer_init>:

void timer_init(void * isr) {
 40223f0:	defffd04 	addi	sp,sp,-12
 40223f4:	dfc00215 	stw	ra,8(sp)
 40223f8:	df000115 	stw	fp,4(sp)
 40223fc:	df000104 	addi	fp,sp,4
 4022400:	e13fff15 	stw	r4,-4(fp)
    IOWR_ALTERA_AVALON_TIMER_CONTROL(TIMER_BASE, 0x0003);
 4022404:	00c000c4 	movi	r3,3
 4022408:	00810134 	movhi	r2,1028
 402240c:	10c40135 	stwio	r3,4100(r2)
    IOWR_ALTERA_AVALON_TIMER_STATUS(TIMER_BASE, 0);
 4022410:	0007883a 	mov	r3,zero
 4022414:	00810134 	movhi	r2,1028
 4022418:	10c40035 	stwio	r3,4096(r2)
    IOWR_ALTERA_AVALON_TIMER_PERIODL(TIMER_BASE, 0x0900);
 402241c:	00c24004 	movi	r3,2304
 4022420:	00810134 	movhi	r2,1028
 4022424:	10c40235 	stwio	r3,4104(r2)
    IOWR_ALTERA_AVALON_TIMER_PERIODH(TIMER_BASE, 0x0000);
 4022428:	0007883a 	mov	r3,zero
 402242c:	00810134 	movhi	r2,1028
 4022430:	10c40335 	stwio	r3,4108(r2)
    alt_irq_register(TIMER_IRQ, 0, isr);
 4022434:	e0bfff17 	ldw	r2,-4(fp)
 4022438:	100d883a 	mov	r6,r2
 402243c:	000b883a 	mov	r5,zero
 4022440:	01000084 	movi	r4,2
 4022444:	40311c00 	call	40311c0 <alt_irq_register>
    IOWR_ALTERA_AVALON_TIMER_CONTROL(TIMER_BASE, 0x0007);
 4022448:	00c001c4 	movi	r3,7
 402244c:	00810134 	movhi	r2,1028
 4022450:	10c40135 	stwio	r3,4100(r2)
}
 4022454:	0001883a 	nop
 4022458:	e037883a 	mov	sp,fp
 402245c:	dfc00117 	ldw	ra,4(sp)
 4022460:	df000017 	ldw	fp,0(sp)
 4022464:	dec00204 	addi	sp,sp,8
 4022468:	f800283a 	ret

0402246c <setupTimerLoop>:

void setupTimerLoop(){
 402246c:	defffe04 	addi	sp,sp,-8
 4022470:	dfc00115 	stw	ra,4(sp)
 4022474:	df000015 	stw	fp,0(sp)
 4022478:	d839883a 	mov	fp,sp
	timer_init(sys_timer_isr);
 402247c:	010100b4 	movhi	r4,1026
 4022480:	2107d004 	addi	r4,r4,8000
 4022484:	40223f00 	call	40223f0 <timer_init>
}
 4022488:	0001883a 	nop
 402248c:	e037883a 	mov	sp,fp
 4022490:	dfc00117 	ldw	ra,4(sp)
 4022494:	df000017 	ldw	fp,0(sp)
 4022498:	dec00204 	addi	sp,sp,8
 402249c:	f800283a 	ret

040224a0 <__divsi3>:
 40224a0:	20001a16 	blt	r4,zero,402250c <__divsi3+0x6c>
 40224a4:	000f883a 	mov	r7,zero
 40224a8:	2800020e 	bge	r5,zero,40224b4 <__divsi3+0x14>
 40224ac:	014bc83a 	sub	r5,zero,r5
 40224b0:	39c0005c 	xori	r7,r7,1
 40224b4:	200d883a 	mov	r6,r4
 40224b8:	00c00044 	movi	r3,1
 40224bc:	2900092e 	bgeu	r5,r4,40224e4 <__divsi3+0x44>
 40224c0:	00800804 	movi	r2,32
 40224c4:	00c00044 	movi	r3,1
 40224c8:	00000106 	br	40224d0 <__divsi3+0x30>
 40224cc:	10001226 	beq	r2,zero,4022518 <__divsi3+0x78>
 40224d0:	294b883a 	add	r5,r5,r5
 40224d4:	10bfffc4 	addi	r2,r2,-1
 40224d8:	18c7883a 	add	r3,r3,r3
 40224dc:	293ffb36 	bltu	r5,r4,40224cc <__divsi3+0x2c>
 40224e0:	18000d26 	beq	r3,zero,4022518 <__divsi3+0x78>
 40224e4:	0005883a 	mov	r2,zero
 40224e8:	31400236 	bltu	r6,r5,40224f4 <__divsi3+0x54>
 40224ec:	314dc83a 	sub	r6,r6,r5
 40224f0:	10c4b03a 	or	r2,r2,r3
 40224f4:	1806d07a 	srli	r3,r3,1
 40224f8:	280ad07a 	srli	r5,r5,1
 40224fc:	183ffa1e 	bne	r3,zero,40224e8 <__divsi3+0x48>
 4022500:	38000126 	beq	r7,zero,4022508 <__divsi3+0x68>
 4022504:	0085c83a 	sub	r2,zero,r2
 4022508:	f800283a 	ret
 402250c:	0109c83a 	sub	r4,zero,r4
 4022510:	01c00044 	movi	r7,1
 4022514:	003fe406 	br	40224a8 <__divsi3+0x8>
 4022518:	0005883a 	mov	r2,zero
 402251c:	003ff806 	br	4022500 <__divsi3+0x60>

04022520 <__modsi3>:
 4022520:	20001916 	blt	r4,zero,4022588 <__modsi3+0x68>
 4022524:	000f883a 	mov	r7,zero
 4022528:	2005883a 	mov	r2,r4
 402252c:	2800010e 	bge	r5,zero,4022534 <__modsi3+0x14>
 4022530:	014bc83a 	sub	r5,zero,r5
 4022534:	00c00044 	movi	r3,1
 4022538:	2900092e 	bgeu	r5,r4,4022560 <__modsi3+0x40>
 402253c:	01800804 	movi	r6,32
 4022540:	00c00044 	movi	r3,1
 4022544:	00000106 	br	402254c <__modsi3+0x2c>
 4022548:	30000d26 	beq	r6,zero,4022580 <__modsi3+0x60>
 402254c:	294b883a 	add	r5,r5,r5
 4022550:	31bfffc4 	addi	r6,r6,-1
 4022554:	18c7883a 	add	r3,r3,r3
 4022558:	293ffb36 	bltu	r5,r4,4022548 <__modsi3+0x28>
 402255c:	18000826 	beq	r3,zero,4022580 <__modsi3+0x60>
 4022560:	1806d07a 	srli	r3,r3,1
 4022564:	11400136 	bltu	r2,r5,402256c <__modsi3+0x4c>
 4022568:	1145c83a 	sub	r2,r2,r5
 402256c:	280ad07a 	srli	r5,r5,1
 4022570:	183ffb1e 	bne	r3,zero,4022560 <__modsi3+0x40>
 4022574:	38000126 	beq	r7,zero,402257c <__modsi3+0x5c>
 4022578:	0085c83a 	sub	r2,zero,r2
 402257c:	f800283a 	ret
 4022580:	2005883a 	mov	r2,r4
 4022584:	003ffb06 	br	4022574 <__modsi3+0x54>
 4022588:	0109c83a 	sub	r4,zero,r4
 402258c:	01c00044 	movi	r7,1
 4022590:	003fe506 	br	4022528 <__modsi3+0x8>

04022594 <__udivsi3>:
 4022594:	200d883a 	mov	r6,r4
 4022598:	2900152e 	bgeu	r5,r4,40225f0 <__udivsi3+0x5c>
 402259c:	28001416 	blt	r5,zero,40225f0 <__udivsi3+0x5c>
 40225a0:	00800804 	movi	r2,32
 40225a4:	00c00044 	movi	r3,1
 40225a8:	00000206 	br	40225b4 <__udivsi3+0x20>
 40225ac:	10000e26 	beq	r2,zero,40225e8 <__udivsi3+0x54>
 40225b0:	28000516 	blt	r5,zero,40225c8 <__udivsi3+0x34>
 40225b4:	294b883a 	add	r5,r5,r5
 40225b8:	10bfffc4 	addi	r2,r2,-1
 40225bc:	18c7883a 	add	r3,r3,r3
 40225c0:	293ffa36 	bltu	r5,r4,40225ac <__udivsi3+0x18>
 40225c4:	18000826 	beq	r3,zero,40225e8 <__udivsi3+0x54>
 40225c8:	0005883a 	mov	r2,zero
 40225cc:	31400236 	bltu	r6,r5,40225d8 <__udivsi3+0x44>
 40225d0:	314dc83a 	sub	r6,r6,r5
 40225d4:	10c4b03a 	or	r2,r2,r3
 40225d8:	1806d07a 	srli	r3,r3,1
 40225dc:	280ad07a 	srli	r5,r5,1
 40225e0:	183ffa1e 	bne	r3,zero,40225cc <__udivsi3+0x38>
 40225e4:	f800283a 	ret
 40225e8:	0005883a 	mov	r2,zero
 40225ec:	f800283a 	ret
 40225f0:	00c00044 	movi	r3,1
 40225f4:	003ff406 	br	40225c8 <__udivsi3+0x34>

040225f8 <__umodsi3>:
 40225f8:	2005883a 	mov	r2,r4
 40225fc:	2900132e 	bgeu	r5,r4,402264c <__umodsi3+0x54>
 4022600:	28001216 	blt	r5,zero,402264c <__umodsi3+0x54>
 4022604:	01800804 	movi	r6,32
 4022608:	00c00044 	movi	r3,1
 402260c:	00000206 	br	4022618 <__umodsi3+0x20>
 4022610:	30000c26 	beq	r6,zero,4022644 <__umodsi3+0x4c>
 4022614:	28000516 	blt	r5,zero,402262c <__umodsi3+0x34>
 4022618:	294b883a 	add	r5,r5,r5
 402261c:	31bfffc4 	addi	r6,r6,-1
 4022620:	18c7883a 	add	r3,r3,r3
 4022624:	293ffa36 	bltu	r5,r4,4022610 <__umodsi3+0x18>
 4022628:	18000626 	beq	r3,zero,4022644 <__umodsi3+0x4c>
 402262c:	1806d07a 	srli	r3,r3,1
 4022630:	11400136 	bltu	r2,r5,4022638 <__umodsi3+0x40>
 4022634:	1145c83a 	sub	r2,r2,r5
 4022638:	280ad07a 	srli	r5,r5,1
 402263c:	183ffb1e 	bne	r3,zero,402262c <__umodsi3+0x34>
 4022640:	f800283a 	ret
 4022644:	2005883a 	mov	r2,r4
 4022648:	f800283a 	ret
 402264c:	00c00044 	movi	r3,1
 4022650:	003ff606 	br	402262c <__umodsi3+0x34>

04022654 <__addsf3>:
 4022654:	defffc04 	addi	sp,sp,-16
 4022658:	2806d5fa 	srli	r3,r5,23
 402265c:	dc000015 	stw	r16,0(sp)
 4022660:	2020d5fa 	srli	r16,r4,23
 4022664:	200cd7fa 	srli	r6,r4,31
 4022668:	00802034 	movhi	r2,128
 402266c:	2812d7fa 	srli	r9,r5,31
 4022670:	10bfffc4 	addi	r2,r2,-1
 4022674:	1114703a 	and	r10,r2,r4
 4022678:	1b003fcc 	andi	r12,r3,255
 402267c:	dc400115 	stw	r17,4(sp)
 4022680:	84003fcc 	andi	r16,r16,255
 4022684:	115a703a 	and	r13,r2,r5
 4022688:	dfc00315 	stw	ra,12(sp)
 402268c:	dc800215 	stw	r18,8(sp)
 4022690:	500e90fa 	slli	r7,r10,3
 4022694:	681090fa 	slli	r8,r13,3
 4022698:	5007883a 	mov	r3,r10
 402269c:	3023883a 	mov	r17,r6
 40226a0:	8317c83a 	sub	r11,r16,r12
 40226a4:	32403926 	beq	r6,r9,402278c <__addsf3+0x138>
 40226a8:	02c02e0e 	bge	zero,r11,4022764 <__addsf3+0x110>
 40226ac:	60004c26 	beq	r12,zero,40227e0 <__addsf3+0x18c>
 40226b0:	80803fe0 	cmpeqi	r2,r16,255
 40226b4:	1000801e 	bne	r2,zero,40228b8 <__addsf3+0x264>
 40226b8:	42010034 	orhi	r8,r8,1024
 40226bc:	58800710 	cmplti	r2,r11,28
 40226c0:	10009e1e 	bne	r2,zero,402293c <__addsf3+0x2e8>
 40226c4:	01000044 	movi	r4,1
 40226c8:	3909c83a 	sub	r4,r7,r4
 40226cc:	2081002c 	andhi	r2,r4,1024
 40226d0:	10006826 	beq	r2,zero,4022874 <__addsf3+0x220>
 40226d4:	04810034 	movhi	r18,1024
 40226d8:	94bfffc4 	addi	r18,r18,-1
 40226dc:	24a4703a 	and	r18,r4,r18
 40226e0:	9009883a 	mov	r4,r18
 40226e4:	40233fc0 	call	40233fc <__clzsi2>
 40226e8:	10bffec4 	addi	r2,r2,-5
 40226ec:	9088983a 	sll	r4,r18,r2
 40226f0:	1400880e 	bge	r2,r16,4022914 <__addsf3+0x2c0>
 40226f4:	00ff0034 	movhi	r3,64512
 40226f8:	18ffffc4 	addi	r3,r3,-1
 40226fc:	80a1c83a 	sub	r16,r16,r2
 4022700:	20c8703a 	and	r4,r4,r3
 4022704:	208001cc 	andi	r2,r4,7
 4022708:	10000426 	beq	r2,zero,402271c <__addsf3+0xc8>
 402270c:	208003cc 	andi	r2,r4,15
 4022710:	10800120 	cmpeqi	r2,r2,4
 4022714:	1000011e 	bne	r2,zero,402271c <__addsf3+0xc8>
 4022718:	21000104 	addi	r4,r4,4
 402271c:	2081002c 	andhi	r2,r4,1024
 4022720:	10005626 	beq	r2,zero,402287c <__addsf3+0x228>
 4022724:	84000044 	addi	r16,r16,1
 4022728:	80803fe0 	cmpeqi	r2,r16,255
 402272c:	1000461e 	bne	r2,zero,4022848 <__addsf3+0x1f4>
 4022730:	200491ba 	slli	r2,r4,6
 4022734:	1006d27a 	srli	r3,r2,9
 4022738:	84003fcc 	andi	r16,r16,255
 402273c:	800495fa 	slli	r2,r16,23
 4022740:	882297fa 	slli	r17,r17,31
 4022744:	10c4b03a 	or	r2,r2,r3
 4022748:	1444b03a 	or	r2,r2,r17
 402274c:	dfc00317 	ldw	ra,12(sp)
 4022750:	dc800217 	ldw	r18,8(sp)
 4022754:	dc400117 	ldw	r17,4(sp)
 4022758:	dc000017 	ldw	r16,0(sp)
 402275c:	dec00404 	addi	sp,sp,16
 4022760:	f800283a 	ret
 4022764:	58002526 	beq	r11,zero,40227fc <__addsf3+0x1a8>
 4022768:	6417c83a 	sub	r11,r12,r16
 402276c:	8000821e 	bne	r16,zero,4022978 <__addsf3+0x324>
 4022770:	38006426 	beq	r7,zero,4022904 <__addsf3+0x2b0>
 4022774:	58bfffc4 	addi	r2,r11,-1
 4022778:	1000c226 	beq	r2,zero,4022a84 <__addsf3+0x430>
 402277c:	5ac03fe0 	cmpeqi	r11,r11,255
 4022780:	58004b1e 	bne	r11,zero,40228b0 <__addsf3+0x25c>
 4022784:	1017883a 	mov	r11,r2
 4022788:	00007e06 	br	4022984 <__addsf3+0x330>
 402278c:	02c0510e 	bge	zero,r11,40228d4 <__addsf3+0x280>
 4022790:	60002626 	beq	r12,zero,402282c <__addsf3+0x1d8>
 4022794:	80803fe0 	cmpeqi	r2,r16,255
 4022798:	1000471e 	bne	r2,zero,40228b8 <__addsf3+0x264>
 402279c:	42010034 	orhi	r8,r8,1024
 40227a0:	58800710 	cmplti	r2,r11,28
 40227a4:	10007e1e 	bne	r2,zero,40229a0 <__addsf3+0x34c>
 40227a8:	01000044 	movi	r4,1
 40227ac:	21c9883a 	add	r4,r4,r7
 40227b0:	2081002c 	andhi	r2,r4,1024
 40227b4:	10002f26 	beq	r2,zero,4022874 <__addsf3+0x220>
 40227b8:	84000044 	addi	r16,r16,1
 40227bc:	80803fe0 	cmpeqi	r2,r16,255
 40227c0:	1000211e 	bne	r2,zero,4022848 <__addsf3+0x1f4>
 40227c4:	2004d07a 	srli	r2,r4,1
 40227c8:	00df8034 	movhi	r3,32256
 40227cc:	18ffffc4 	addi	r3,r3,-1
 40227d0:	2100004c 	andi	r4,r4,1
 40227d4:	10c4703a 	and	r2,r2,r3
 40227d8:	1108b03a 	or	r4,r2,r4
 40227dc:	003fc906 	br	4022704 <__addsf3+0xb0>
 40227e0:	40004a26 	beq	r8,zero,402290c <__addsf3+0x2b8>
 40227e4:	58bfffc4 	addi	r2,r11,-1
 40227e8:	10009326 	beq	r2,zero,4022a38 <__addsf3+0x3e4>
 40227ec:	59003fe0 	cmpeqi	r4,r11,255
 40227f0:	2000311e 	bne	r4,zero,40228b8 <__addsf3+0x264>
 40227f4:	1017883a 	mov	r11,r2
 40227f8:	003fb006 	br	40226bc <__addsf3+0x68>
 40227fc:	81800044 	addi	r6,r16,1
 4022800:	31803f8c 	andi	r6,r6,254
 4022804:	3000541e 	bne	r6,zero,4022958 <__addsf3+0x304>
 4022808:	80007e1e 	bne	r16,zero,4022a04 <__addsf3+0x3b0>
 402280c:	3800a326 	beq	r7,zero,4022a9c <__addsf3+0x448>
 4022810:	40009326 	beq	r8,zero,4022a60 <__addsf3+0x40c>
 4022814:	3a09c83a 	sub	r4,r7,r8
 4022818:	2081002c 	andhi	r2,r4,1024
 402281c:	1000a626 	beq	r2,zero,4022ab8 <__addsf3+0x464>
 4022820:	41c9c83a 	sub	r4,r8,r7
 4022824:	4823883a 	mov	r17,r9
 4022828:	003fb606 	br	4022704 <__addsf3+0xb0>
 402282c:	40003726 	beq	r8,zero,402290c <__addsf3+0x2b8>
 4022830:	58bfffc4 	addi	r2,r11,-1
 4022834:	10007b26 	beq	r2,zero,4022a24 <__addsf3+0x3d0>
 4022838:	5ac03fe0 	cmpeqi	r11,r11,255
 402283c:	58001e1e 	bne	r11,zero,40228b8 <__addsf3+0x264>
 4022840:	1017883a 	mov	r11,r2
 4022844:	003fd606 	br	40227a0 <__addsf3+0x14c>
 4022848:	043fffc4 	movi	r16,-1
 402284c:	0007883a 	mov	r3,zero
 4022850:	003fb906 	br	4022738 <__addsf3+0xe4>
 4022854:	80800044 	addi	r2,r16,1
 4022858:	11803f8c 	andi	r6,r2,254
 402285c:	30005726 	beq	r6,zero,40229bc <__addsf3+0x368>
 4022860:	10c03fe0 	cmpeqi	r3,r2,255
 4022864:	183ff81e 	bne	r3,zero,4022848 <__addsf3+0x1f4>
 4022868:	3a09883a 	add	r4,r7,r8
 402286c:	2008d07a 	srli	r4,r4,1
 4022870:	1021883a 	mov	r16,r2
 4022874:	208001cc 	andi	r2,r4,7
 4022878:	103fa41e 	bne	r2,zero,402270c <__addsf3+0xb8>
 402287c:	2014d0fa 	srli	r10,r4,3
 4022880:	80803fe0 	cmpeqi	r2,r16,255
 4022884:	10000c1e 	bne	r2,zero,40228b8 <__addsf3+0x264>
 4022888:	00802034 	movhi	r2,128
 402288c:	10bfffc4 	addi	r2,r2,-1
 4022890:	5086703a 	and	r3,r10,r2
 4022894:	003fa806 	br	4022738 <__addsf3+0xe4>
 4022898:	38000626 	beq	r7,zero,40228b4 <__addsf3+0x260>
 402289c:	40000626 	beq	r8,zero,40228b8 <__addsf3+0x264>
 40228a0:	2080102c 	andhi	r2,r4,64
 40228a4:	10000426 	beq	r2,zero,40228b8 <__addsf3+0x264>
 40228a8:	2940102c 	andhi	r5,r5,64
 40228ac:	2800021e 	bne	r5,zero,40228b8 <__addsf3+0x264>
 40228b0:	4823883a 	mov	r17,r9
 40228b4:	6815883a 	mov	r10,r13
 40228b8:	503fe326 	beq	r10,zero,4022848 <__addsf3+0x1f4>
 40228bc:	00802034 	movhi	r2,128
 40228c0:	50c01034 	orhi	r3,r10,64
 40228c4:	10bfffc4 	addi	r2,r2,-1
 40228c8:	1886703a 	and	r3,r3,r2
 40228cc:	043fffc4 	movi	r16,-1
 40228d0:	003f9906 	br	4022738 <__addsf3+0xe4>
 40228d4:	583fdf26 	beq	r11,zero,4022854 <__addsf3+0x200>
 40228d8:	6417c83a 	sub	r11,r12,r16
 40228dc:	80004226 	beq	r16,zero,40229e8 <__addsf3+0x394>
 40228e0:	60803fe0 	cmpeqi	r2,r12,255
 40228e4:	103ff31e 	bne	r2,zero,40228b4 <__addsf3+0x260>
 40228e8:	39c10034 	orhi	r7,r7,1024
 40228ec:	58800710 	cmplti	r2,r11,28
 40228f0:	10005d1e 	bne	r2,zero,4022a68 <__addsf3+0x414>
 40228f4:	01000044 	movi	r4,1
 40228f8:	2209883a 	add	r4,r4,r8
 40228fc:	6021883a 	mov	r16,r12
 4022900:	003fab06 	br	40227b0 <__addsf3+0x15c>
 4022904:	4823883a 	mov	r17,r9
 4022908:	6815883a 	mov	r10,r13
 402290c:	5821883a 	mov	r16,r11
 4022910:	003fdb06 	br	4022880 <__addsf3+0x22c>
 4022914:	1405c83a 	sub	r2,r2,r16
 4022918:	14800044 	addi	r18,r2,1
 402291c:	00800804 	movi	r2,32
 4022920:	1485c83a 	sub	r2,r2,r18
 4022924:	2084983a 	sll	r2,r4,r2
 4022928:	2488d83a 	srl	r4,r4,r18
 402292c:	0021883a 	mov	r16,zero
 4022930:	1004c03a 	cmpne	r2,r2,zero
 4022934:	1108b03a 	or	r4,r2,r4
 4022938:	003f7206 	br	4022704 <__addsf3+0xb0>
 402293c:	01000804 	movi	r4,32
 4022940:	22c9c83a 	sub	r4,r4,r11
 4022944:	4108983a 	sll	r4,r8,r4
 4022948:	42d0d83a 	srl	r8,r8,r11
 402294c:	2008c03a 	cmpne	r4,r4,zero
 4022950:	2208b03a 	or	r4,r4,r8
 4022954:	003f5c06 	br	40226c8 <__addsf3+0x74>
 4022958:	3a25c83a 	sub	r18,r7,r8
 402295c:	9081002c 	andhi	r2,r18,1024
 4022960:	10002d1e 	bne	r2,zero,4022a18 <__addsf3+0x3c4>
 4022964:	903f5e1e 	bne	r18,zero,40226e0 <__addsf3+0x8c>
 4022968:	0023883a 	mov	r17,zero
 402296c:	0021883a 	mov	r16,zero
 4022970:	0007883a 	mov	r3,zero
 4022974:	003f7006 	br	4022738 <__addsf3+0xe4>
 4022978:	60803fe0 	cmpeqi	r2,r12,255
 402297c:	103fcc1e 	bne	r2,zero,40228b0 <__addsf3+0x25c>
 4022980:	39c10034 	orhi	r7,r7,1024
 4022984:	58800710 	cmplti	r2,r11,28
 4022988:	10002e1e 	bne	r2,zero,4022a44 <__addsf3+0x3f0>
 402298c:	01000044 	movi	r4,1
 4022990:	4109c83a 	sub	r4,r8,r4
 4022994:	4823883a 	mov	r17,r9
 4022998:	6021883a 	mov	r16,r12
 402299c:	003f4b06 	br	40226cc <__addsf3+0x78>
 40229a0:	01000804 	movi	r4,32
 40229a4:	22c9c83a 	sub	r4,r4,r11
 40229a8:	4108983a 	sll	r4,r8,r4
 40229ac:	42d0d83a 	srl	r8,r8,r11
 40229b0:	2008c03a 	cmpne	r4,r4,zero
 40229b4:	2208b03a 	or	r4,r4,r8
 40229b8:	003f7c06 	br	40227ac <__addsf3+0x158>
 40229bc:	803fb61e 	bne	r16,zero,4022898 <__addsf3+0x244>
 40229c0:	38003a26 	beq	r7,zero,4022aac <__addsf3+0x458>
 40229c4:	40002626 	beq	r8,zero,4022a60 <__addsf3+0x40c>
 40229c8:	3a09883a 	add	r4,r7,r8
 40229cc:	2081002c 	andhi	r2,r4,1024
 40229d0:	103fa826 	beq	r2,zero,4022874 <__addsf3+0x220>
 40229d4:	00bf0034 	movhi	r2,64512
 40229d8:	10bfffc4 	addi	r2,r2,-1
 40229dc:	2088703a 	and	r4,r4,r2
 40229e0:	04000044 	movi	r16,1
 40229e4:	003fa306 	br	4022874 <__addsf3+0x220>
 40229e8:	383fc726 	beq	r7,zero,4022908 <__addsf3+0x2b4>
 40229ec:	58bfffc4 	addi	r2,r11,-1
 40229f0:	10000c26 	beq	r2,zero,4022a24 <__addsf3+0x3d0>
 40229f4:	5ac03fe0 	cmpeqi	r11,r11,255
 40229f8:	583fae1e 	bne	r11,zero,40228b4 <__addsf3+0x260>
 40229fc:	1017883a 	mov	r11,r2
 4022a00:	003fba06 	br	40228ec <__addsf3+0x298>
 4022a04:	383fa51e 	bne	r7,zero,402289c <__addsf3+0x248>
 4022a08:	403fa91e 	bne	r8,zero,40228b0 <__addsf3+0x25c>
 4022a0c:	0023883a 	mov	r17,zero
 4022a10:	1007883a 	mov	r3,r2
 4022a14:	003fad06 	br	40228cc <__addsf3+0x278>
 4022a18:	41e5c83a 	sub	r18,r8,r7
 4022a1c:	4823883a 	mov	r17,r9
 4022a20:	003f2f06 	br	40226e0 <__addsf3+0x8c>
 4022a24:	3a09883a 	add	r4,r7,r8
 4022a28:	2081002c 	andhi	r2,r4,1024
 4022a2c:	10001926 	beq	r2,zero,4022a94 <__addsf3+0x440>
 4022a30:	04000084 	movi	r16,2
 4022a34:	003f6306 	br	40227c4 <__addsf3+0x170>
 4022a38:	3a09c83a 	sub	r4,r7,r8
 4022a3c:	04000044 	movi	r16,1
 4022a40:	003f2206 	br	40226cc <__addsf3+0x78>
 4022a44:	00800804 	movi	r2,32
 4022a48:	12c5c83a 	sub	r2,r2,r11
 4022a4c:	3884983a 	sll	r2,r7,r2
 4022a50:	3aced83a 	srl	r7,r7,r11
 4022a54:	1008c03a 	cmpne	r4,r2,zero
 4022a58:	21c8b03a 	or	r4,r4,r7
 4022a5c:	003fcc06 	br	4022990 <__addsf3+0x33c>
 4022a60:	0021883a 	mov	r16,zero
 4022a64:	003f3406 	br	4022738 <__addsf3+0xe4>
 4022a68:	01000804 	movi	r4,32
 4022a6c:	22c9c83a 	sub	r4,r4,r11
 4022a70:	3908983a 	sll	r4,r7,r4
 4022a74:	3aced83a 	srl	r7,r7,r11
 4022a78:	2008c03a 	cmpne	r4,r4,zero
 4022a7c:	21c8b03a 	or	r4,r4,r7
 4022a80:	003f9d06 	br	40228f8 <__addsf3+0x2a4>
 4022a84:	41c9c83a 	sub	r4,r8,r7
 4022a88:	4823883a 	mov	r17,r9
 4022a8c:	04000044 	movi	r16,1
 4022a90:	003f0e06 	br	40226cc <__addsf3+0x78>
 4022a94:	04000044 	movi	r16,1
 4022a98:	003f7606 	br	4022874 <__addsf3+0x220>
 4022a9c:	403fb226 	beq	r8,zero,4022968 <__addsf3+0x314>
 4022aa0:	4823883a 	mov	r17,r9
 4022aa4:	6807883a 	mov	r3,r13
 4022aa8:	003f2306 	br	4022738 <__addsf3+0xe4>
 4022aac:	6807883a 	mov	r3,r13
 4022ab0:	0021883a 	mov	r16,zero
 4022ab4:	003f2006 	br	4022738 <__addsf3+0xe4>
 4022ab8:	203fab26 	beq	r4,zero,4022968 <__addsf3+0x314>
 4022abc:	003f6d06 	br	4022874 <__addsf3+0x220>

04022ac0 <__divsf3>:
 4022ac0:	defff604 	addi	sp,sp,-40
 4022ac4:	2006d5fa 	srli	r3,r4,23
 4022ac8:	dd400615 	stw	r21,24(sp)
 4022acc:	202ad7fa 	srli	r21,r4,31
 4022ad0:	00802034 	movhi	r2,128
 4022ad4:	dc800315 	stw	r18,12(sp)
 4022ad8:	dc000115 	stw	r16,4(sp)
 4022adc:	10bfffc4 	addi	r2,r2,-1
 4022ae0:	dfc00915 	stw	ra,36(sp)
 4022ae4:	ddc00815 	stw	r23,32(sp)
 4022ae8:	dd800715 	stw	r22,28(sp)
 4022aec:	dd000515 	stw	r20,20(sp)
 4022af0:	dcc00415 	stw	r19,16(sp)
 4022af4:	dc400215 	stw	r17,8(sp)
 4022af8:	18c03fcc 	andi	r3,r3,255
 4022afc:	1120703a 	and	r16,r2,r4
 4022b00:	a825883a 	mov	r18,r21
 4022b04:	18007b26 	beq	r3,zero,4022cf4 <__divsf3+0x234>
 4022b08:	18803fe0 	cmpeqi	r2,r3,255
 4022b0c:	10007e1e 	bne	r2,zero,4022d08 <__divsf3+0x248>
 4022b10:	800490fa 	slli	r2,r16,3
 4022b14:	1d3fe044 	addi	r20,r3,-127
 4022b18:	0023883a 	mov	r17,zero
 4022b1c:	14010034 	orhi	r16,r2,1024
 4022b20:	002d883a 	mov	r22,zero
 4022b24:	2806d5fa 	srli	r3,r5,23
 4022b28:	01002034 	movhi	r4,128
 4022b2c:	213fffc4 	addi	r4,r4,-1
 4022b30:	18c03fcc 	andi	r3,r3,255
 4022b34:	282ed7fa 	srli	r23,r5,31
 4022b38:	2166703a 	and	r19,r4,r5
 4022b3c:	18005326 	beq	r3,zero,4022c8c <__divsf3+0x1cc>
 4022b40:	18803fe0 	cmpeqi	r2,r3,255
 4022b44:	10004d1e 	bne	r2,zero,4022c7c <__divsf3+0x1bc>
 4022b48:	980a90fa 	slli	r5,r19,3
 4022b4c:	18ffe044 	addi	r3,r3,-127
 4022b50:	a0e9c83a 	sub	r20,r20,r3
 4022b54:	2cc10034 	orhi	r19,r5,1024
 4022b58:	0007883a 	mov	r3,zero
 4022b5c:	1c62b03a 	or	r17,r3,r17
 4022b60:	882290ba 	slli	r17,r17,2
 4022b64:	008100b4 	movhi	r2,1026
 4022b68:	bd6af03a 	xor	r21,r23,r21
 4022b6c:	8885883a 	add	r2,r17,r2
 4022b70:	108adf17 	ldw	r2,11132(r2)
 4022b74:	a809883a 	mov	r4,r21
 4022b78:	1000683a 	jmp	r2
 4022b7c:	04022e40 	call	4022e4 <_gp+0x3f7db4>
 4022b80:	04022d80 	call	4022d8 <_gp+0x3f7da8>
 4022b84:	04022c30 	cmpltui	r16,zero,2224
 4022b88:	04022bc0 	call	4022bc <_gp+0x3f7d8c>
 4022b8c:	04022c30 	cmpltui	r16,zero,2224
 4022b90:	04022dec 	andhi	r16,zero,2231
 4022b94:	04022c30 	cmpltui	r16,zero,2224
 4022b98:	04022bc0 	call	4022bc <_gp+0x3f7d8c>
 4022b9c:	04022d80 	call	4022d8 <_gp+0x3f7da8>
 4022ba0:	04022d80 	call	4022d8 <_gp+0x3f7da8>
 4022ba4:	04022dec 	andhi	r16,zero,2231
 4022ba8:	04022bc0 	call	4022bc <_gp+0x3f7d8c>
 4022bac:	04022bcc 	andi	r16,zero,2223
 4022bb0:	04022bcc 	andi	r16,zero,2223
 4022bb4:	04022bcc 	andi	r16,zero,2223
 4022bb8:	04022e04 	movi	r16,2232
 4022bbc:	0027883a 	mov	r19,zero
 4022bc0:	b825883a 	mov	r18,r23
 4022bc4:	9821883a 	mov	r16,r19
 4022bc8:	182d883a 	mov	r22,r3
 4022bcc:	b08000a0 	cmpeqi	r2,r22,2
 4022bd0:	1000831e 	bne	r2,zero,4022de0 <__divsf3+0x320>
 4022bd4:	b08000e0 	cmpeqi	r2,r22,3
 4022bd8:	1000941e 	bne	r2,zero,4022e2c <__divsf3+0x36c>
 4022bdc:	b5800060 	cmpeqi	r22,r22,1
 4022be0:	b000141e 	bne	r22,zero,4022c34 <__divsf3+0x174>
 4022be4:	a0801fc4 	addi	r2,r20,127
 4022be8:	0080690e 	bge	zero,r2,4022d90 <__divsf3+0x2d0>
 4022bec:	80c001cc 	andi	r3,r16,7
 4022bf0:	18000426 	beq	r3,zero,4022c04 <__divsf3+0x144>
 4022bf4:	80c003cc 	andi	r3,r16,15
 4022bf8:	18c00120 	cmpeqi	r3,r3,4
 4022bfc:	1800011e 	bne	r3,zero,4022c04 <__divsf3+0x144>
 4022c00:	84000104 	addi	r16,r16,4
 4022c04:	80c2002c 	andhi	r3,r16,2048
 4022c08:	18000426 	beq	r3,zero,4022c1c <__divsf3+0x15c>
 4022c0c:	00be0034 	movhi	r2,63488
 4022c10:	10bfffc4 	addi	r2,r2,-1
 4022c14:	80a0703a 	and	r16,r16,r2
 4022c18:	a0802004 	addi	r2,r20,128
 4022c1c:	10c03fc8 	cmpgei	r3,r2,255
 4022c20:	18006f1e 	bne	r3,zero,4022de0 <__divsf3+0x320>
 4022c24:	802091ba 	slli	r16,r16,6
 4022c28:	8020d27a 	srli	r16,r16,9
 4022c2c:	00000306 	br	4022c3c <__divsf3+0x17c>
 4022c30:	a825883a 	mov	r18,r21
 4022c34:	0005883a 	mov	r2,zero
 4022c38:	0021883a 	mov	r16,zero
 4022c3c:	10803fcc 	andi	r2,r2,255
 4022c40:	100495fa 	slli	r2,r2,23
 4022c44:	902497fa 	slli	r18,r18,31
 4022c48:	1404b03a 	or	r2,r2,r16
 4022c4c:	1484b03a 	or	r2,r2,r18
 4022c50:	dfc00917 	ldw	ra,36(sp)
 4022c54:	ddc00817 	ldw	r23,32(sp)
 4022c58:	dd800717 	ldw	r22,28(sp)
 4022c5c:	dd400617 	ldw	r21,24(sp)
 4022c60:	dd000517 	ldw	r20,20(sp)
 4022c64:	dcc00417 	ldw	r19,16(sp)
 4022c68:	dc800317 	ldw	r18,12(sp)
 4022c6c:	dc400217 	ldw	r17,8(sp)
 4022c70:	dc000117 	ldw	r16,4(sp)
 4022c74:	dec00a04 	addi	sp,sp,40
 4022c78:	f800283a 	ret
 4022c7c:	a53fc044 	addi	r20,r20,-255
 4022c80:	98003d1e 	bne	r19,zero,4022d78 <__divsf3+0x2b8>
 4022c84:	00c00084 	movi	r3,2
 4022c88:	00000206 	br	4022c94 <__divsf3+0x1d4>
 4022c8c:	9800321e 	bne	r19,zero,4022d58 <__divsf3+0x298>
 4022c90:	00c00044 	movi	r3,1
 4022c94:	1c62b03a 	or	r17,r3,r17
 4022c98:	882290ba 	slli	r17,r17,2
 4022c9c:	008100b4 	movhi	r2,1026
 4022ca0:	bd6af03a 	xor	r21,r23,r21
 4022ca4:	8885883a 	add	r2,r17,r2
 4022ca8:	108b2d17 	ldw	r2,11444(r2)
 4022cac:	a809883a 	mov	r4,r21
 4022cb0:	1000683a 	jmp	r2
 4022cb4:	04022d80 	call	4022d8 <_gp+0x3f7da8>
 4022cb8:	04022d80 	call	4022d8 <_gp+0x3f7da8>
 4022cbc:	04022c30 	cmpltui	r16,zero,2224
 4022cc0:	04022bbc 	xorhi	r16,zero,2222
 4022cc4:	04022c30 	cmpltui	r16,zero,2224
 4022cc8:	04022dec 	andhi	r16,zero,2231
 4022ccc:	04022c30 	cmpltui	r16,zero,2224
 4022cd0:	04022bbc 	xorhi	r16,zero,2222
 4022cd4:	04022d80 	call	4022d8 <_gp+0x3f7da8>
 4022cd8:	04022d80 	call	4022d8 <_gp+0x3f7da8>
 4022cdc:	04022dec 	andhi	r16,zero,2231
 4022ce0:	04022bbc 	xorhi	r16,zero,2222
 4022ce4:	04022bcc 	andi	r16,zero,2223
 4022ce8:	04022bcc 	andi	r16,zero,2223
 4022cec:	04022bcc 	andi	r16,zero,2223
 4022cf0:	04022e00 	call	4022e0 <_gp+0x3f7db0>
 4022cf4:	80000d1e 	bne	r16,zero,4022d2c <__divsf3+0x26c>
 4022cf8:	04400104 	movi	r17,4
 4022cfc:	0029883a 	mov	r20,zero
 4022d00:	05800044 	movi	r22,1
 4022d04:	003f8706 	br	4022b24 <__divsf3+0x64>
 4022d08:	8000041e 	bne	r16,zero,4022d1c <__divsf3+0x25c>
 4022d0c:	04400204 	movi	r17,8
 4022d10:	05003fc4 	movi	r20,255
 4022d14:	05800084 	movi	r22,2
 4022d18:	003f8206 	br	4022b24 <__divsf3+0x64>
 4022d1c:	04400304 	movi	r17,12
 4022d20:	05003fc4 	movi	r20,255
 4022d24:	058000c4 	movi	r22,3
 4022d28:	003f7e06 	br	4022b24 <__divsf3+0x64>
 4022d2c:	8009883a 	mov	r4,r16
 4022d30:	d9400015 	stw	r5,0(sp)
 4022d34:	40233fc0 	call	40233fc <__clzsi2>
 4022d38:	10fffec4 	addi	r3,r2,-5
 4022d3c:	80e0983a 	sll	r16,r16,r3
 4022d40:	00ffe284 	movi	r3,-118
 4022d44:	d9400017 	ldw	r5,0(sp)
 4022d48:	18a9c83a 	sub	r20,r3,r2
 4022d4c:	0023883a 	mov	r17,zero
 4022d50:	002d883a 	mov	r22,zero
 4022d54:	003f7306 	br	4022b24 <__divsf3+0x64>
 4022d58:	9809883a 	mov	r4,r19
 4022d5c:	40233fc0 	call	40233fc <__clzsi2>
 4022d60:	a087883a 	add	r3,r20,r2
 4022d64:	113ffec4 	addi	r4,r2,-5
 4022d68:	1d001d84 	addi	r20,r3,118
 4022d6c:	9926983a 	sll	r19,r19,r4
 4022d70:	0007883a 	mov	r3,zero
 4022d74:	003f7906 	br	4022b5c <__divsf3+0x9c>
 4022d78:	00c000c4 	movi	r3,3
 4022d7c:	003f7706 	br	4022b5c <__divsf3+0x9c>
 4022d80:	2025883a 	mov	r18,r4
 4022d84:	00bfffc4 	movi	r2,-1
 4022d88:	0021883a 	mov	r16,zero
 4022d8c:	003fab06 	br	4022c3c <__divsf3+0x17c>
 4022d90:	00c00044 	movi	r3,1
 4022d94:	1885c83a 	sub	r2,r3,r2
 4022d98:	10c00708 	cmpgei	r3,r2,28
 4022d9c:	183fa51e 	bne	r3,zero,4022c34 <__divsf3+0x174>
 4022da0:	a0c02784 	addi	r3,r20,158
 4022da4:	80c6983a 	sll	r3,r16,r3
 4022da8:	8084d83a 	srl	r2,r16,r2
 4022dac:	1820c03a 	cmpne	r16,r3,zero
 4022db0:	1404b03a 	or	r2,r2,r16
 4022db4:	10c001cc 	andi	r3,r2,7
 4022db8:	18000426 	beq	r3,zero,4022dcc <__divsf3+0x30c>
 4022dbc:	10c003cc 	andi	r3,r2,15
 4022dc0:	18c00120 	cmpeqi	r3,r3,4
 4022dc4:	1800011e 	bne	r3,zero,4022dcc <__divsf3+0x30c>
 4022dc8:	10800104 	addi	r2,r2,4
 4022dcc:	10c1002c 	andhi	r3,r2,1024
 4022dd0:	18003426 	beq	r3,zero,4022ea4 <__divsf3+0x3e4>
 4022dd4:	00800044 	movi	r2,1
 4022dd8:	0021883a 	mov	r16,zero
 4022ddc:	003f9706 	br	4022c3c <__divsf3+0x17c>
 4022de0:	00bfffc4 	movi	r2,-1
 4022de4:	0021883a 	mov	r16,zero
 4022de8:	003f9406 	br	4022c3c <__divsf3+0x17c>
 4022dec:	04002034 	movhi	r16,128
 4022df0:	0025883a 	mov	r18,zero
 4022df4:	843fffc4 	addi	r16,r16,-1
 4022df8:	00bfffc4 	movi	r2,-1
 4022dfc:	003f8f06 	br	4022c3c <__divsf3+0x17c>
 4022e00:	0027883a 	mov	r19,zero
 4022e04:	8080102c 	andhi	r2,r16,64
 4022e08:	10000826 	beq	r2,zero,4022e2c <__divsf3+0x36c>
 4022e0c:	9880102c 	andhi	r2,r19,64
 4022e10:	1000061e 	bne	r2,zero,4022e2c <__divsf3+0x36c>
 4022e14:	00802034 	movhi	r2,128
 4022e18:	9c001034 	orhi	r16,r19,64
 4022e1c:	10bfffc4 	addi	r2,r2,-1
 4022e20:	80a0703a 	and	r16,r16,r2
 4022e24:	b825883a 	mov	r18,r23
 4022e28:	003ff306 	br	4022df8 <__divsf3+0x338>
 4022e2c:	00802034 	movhi	r2,128
 4022e30:	84001034 	orhi	r16,r16,64
 4022e34:	10bfffc4 	addi	r2,r2,-1
 4022e38:	80a0703a 	and	r16,r16,r2
 4022e3c:	003fee06 	br	4022df8 <__divsf3+0x338>
 4022e40:	8004917a 	slli	r2,r16,5
 4022e44:	980a917a 	slli	r5,r19,5
 4022e48:	1140122e 	bgeu	r2,r5,4022e94 <__divsf3+0x3d4>
 4022e4c:	a53fffc4 	addi	r20,r20,-1
 4022e50:	010006c4 	movi	r4,27
 4022e54:	0021883a 	mov	r16,zero
 4022e58:	1007883a 	mov	r3,r2
 4022e5c:	213fffc4 	addi	r4,r4,-1
 4022e60:	1085883a 	add	r2,r2,r2
 4022e64:	8421883a 	add	r16,r16,r16
 4022e68:	18000116 	blt	r3,zero,4022e70 <__divsf3+0x3b0>
 4022e6c:	11400236 	bltu	r2,r5,4022e78 <__divsf3+0x3b8>
 4022e70:	1145c83a 	sub	r2,r2,r5
 4022e74:	84000054 	ori	r16,r16,1
 4022e78:	203ff71e 	bne	r4,zero,4022e58 <__divsf3+0x398>
 4022e7c:	1004c03a 	cmpne	r2,r2,zero
 4022e80:	1420b03a 	or	r16,r2,r16
 4022e84:	a0801fc4 	addi	r2,r20,127
 4022e88:	a825883a 	mov	r18,r21
 4022e8c:	00bf5716 	blt	zero,r2,4022bec <__divsf3+0x12c>
 4022e90:	003fbf06 	br	4022d90 <__divsf3+0x2d0>
 4022e94:	1145c83a 	sub	r2,r2,r5
 4022e98:	01000684 	movi	r4,26
 4022e9c:	04000044 	movi	r16,1
 4022ea0:	003fed06 	br	4022e58 <__divsf3+0x398>
 4022ea4:	102091ba 	slli	r16,r2,6
 4022ea8:	0005883a 	mov	r2,zero
 4022eac:	8020d27a 	srli	r16,r16,9
 4022eb0:	003f6206 	br	4022c3c <__divsf3+0x17c>

04022eb4 <__mulsf3>:
 4022eb4:	defff704 	addi	sp,sp,-36
 4022eb8:	dc400215 	stw	r17,8(sp)
 4022ebc:	2022d5fa 	srli	r17,r4,23
 4022ec0:	dc000115 	stw	r16,4(sp)
 4022ec4:	04002034 	movhi	r16,128
 4022ec8:	dd000515 	stw	r20,20(sp)
 4022ecc:	843fffc4 	addi	r16,r16,-1
 4022ed0:	dfc00815 	stw	ra,32(sp)
 4022ed4:	dd800715 	stw	r22,28(sp)
 4022ed8:	dd400615 	stw	r21,24(sp)
 4022edc:	dcc00415 	stw	r19,16(sp)
 4022ee0:	dc800315 	stw	r18,12(sp)
 4022ee4:	8c403fcc 	andi	r17,r17,255
 4022ee8:	2028d7fa 	srli	r20,r4,31
 4022eec:	8120703a 	and	r16,r16,r4
 4022ef0:	88008026 	beq	r17,zero,40230f4 <__mulsf3+0x240>
 4022ef4:	88803fe0 	cmpeqi	r2,r17,255
 4022ef8:	1000831e 	bne	r2,zero,4023108 <__mulsf3+0x254>
 4022efc:	802090fa 	slli	r16,r16,3
 4022f00:	8c7fe044 	addi	r17,r17,-127
 4022f04:	002d883a 	mov	r22,zero
 4022f08:	84010034 	orhi	r16,r16,1024
 4022f0c:	0027883a 	mov	r19,zero
 4022f10:	2804d5fa 	srli	r2,r5,23
 4022f14:	01002034 	movhi	r4,128
 4022f18:	213fffc4 	addi	r4,r4,-1
 4022f1c:	10803fcc 	andi	r2,r2,255
 4022f20:	282ad7fa 	srli	r21,r5,31
 4022f24:	2164703a 	and	r18,r4,r5
 4022f28:	10006e26 	beq	r2,zero,40230e4 <__mulsf3+0x230>
 4022f2c:	11003fe0 	cmpeqi	r4,r2,255
 4022f30:	20007a1e 	bne	r4,zero,402311c <__mulsf3+0x268>
 4022f34:	900890fa 	slli	r4,r18,3
 4022f38:	10bfe044 	addi	r2,r2,-127
 4022f3c:	88a3883a 	add	r17,r17,r2
 4022f40:	24810034 	orhi	r18,r4,1024
 4022f44:	0009883a 	mov	r4,zero
 4022f48:	b1800428 	cmpgeui	r6,r22,16
 4022f4c:	a544f03a 	xor	r2,r20,r21
 4022f50:	89c00044 	addi	r7,r17,1
 4022f54:	3000321e 	bne	r6,zero,4023020 <__mulsf3+0x16c>
 4022f58:	b00690ba 	slli	r3,r22,2
 4022f5c:	018100b4 	movhi	r6,1026
 4022f60:	198d883a 	add	r6,r3,r6
 4022f64:	30cbdb17 	ldw	r3,12140(r6)
 4022f68:	1800683a 	jmp	r3
 4022f6c:	04023020 	cmpeqi	r16,zero,2240
 4022f70:	04022fb0 	cmpltui	r16,zero,2238
 4022f74:	04022fb0 	cmpltui	r16,zero,2238
 4022f78:	04022fac 	andhi	r16,zero,2238
 4022f7c:	04022fb8 	rdprs	r16,zero,2238
 4022f80:	04022fb8 	rdprs	r16,zero,2238
 4022f84:	040231a8 	cmpgeui	r16,zero,2246
 4022f88:	04022fac 	andhi	r16,zero,2238
 4022f8c:	04022fb8 	rdprs	r16,zero,2238
 4022f90:	040231a8 	cmpgeui	r16,zero,2246
 4022f94:	04022fb8 	rdprs	r16,zero,2238
 4022f98:	04022fac 	andhi	r16,zero,2238
 4022f9c:	04023130 	cmpltui	r16,zero,2244
 4022fa0:	04023130 	cmpltui	r16,zero,2244
 4022fa4:	04023130 	cmpltui	r16,zero,2244
 4022fa8:	0402320c 	andi	r16,zero,2248
 4022fac:	a805883a 	mov	r2,r21
 4022fb0:	9021883a 	mov	r16,r18
 4022fb4:	2027883a 	mov	r19,r4
 4022fb8:	98c000a0 	cmpeqi	r3,r19,2
 4022fbc:	1800151e 	bne	r3,zero,4023014 <__mulsf3+0x160>
 4022fc0:	98c000e0 	cmpeqi	r3,r19,3
 4022fc4:	1800a31e 	bne	r3,zero,4023254 <__mulsf3+0x3a0>
 4022fc8:	98c00060 	cmpeqi	r3,r19,1
 4022fcc:	18003226 	beq	r3,zero,4023098 <__mulsf3+0x1e4>
 4022fd0:	0007883a 	mov	r3,zero
 4022fd4:	0009883a 	mov	r4,zero
 4022fd8:	1c003fcc 	andi	r16,r3,255
 4022fdc:	802095fa 	slli	r16,r16,23
 4022fe0:	100497fa 	slli	r2,r2,31
 4022fe4:	8120b03a 	or	r16,r16,r4
 4022fe8:	8084b03a 	or	r2,r16,r2
 4022fec:	dfc00817 	ldw	ra,32(sp)
 4022ff0:	dd800717 	ldw	r22,28(sp)
 4022ff4:	dd400617 	ldw	r21,24(sp)
 4022ff8:	dd000517 	ldw	r20,20(sp)
 4022ffc:	dcc00417 	ldw	r19,16(sp)
 4023000:	dc800317 	ldw	r18,12(sp)
 4023004:	dc400217 	ldw	r17,8(sp)
 4023008:	dc000117 	ldw	r16,4(sp)
 402300c:	dec00904 	addi	sp,sp,36
 4023010:	f800283a 	ret
 4023014:	00ffffc4 	movi	r3,-1
 4023018:	0009883a 	mov	r4,zero
 402301c:	003fee06 	br	4022fd8 <__mulsf3+0x124>
 4023020:	9012d43a 	srli	r9,r18,16
 4023024:	80ffffcc 	andi	r3,r16,65535
 4023028:	8010d43a 	srli	r8,r16,16
 402302c:	913fffcc 	andi	r4,r18,65535
 4023030:	190b383a 	mul	r5,r3,r4
 4023034:	4125383a 	mul	r18,r8,r4
 4023038:	48cd383a 	mul	r6,r9,r3
 402303c:	2806d43a 	srli	r3,r5,16
 4023040:	4251383a 	mul	r8,r8,r9
 4023044:	348d883a 	add	r6,r6,r18
 4023048:	1987883a 	add	r3,r3,r6
 402304c:	1c80022e 	bgeu	r3,r18,4023058 <__mulsf3+0x1a4>
 4023050:	01000074 	movhi	r4,1
 4023054:	4111883a 	add	r8,r8,r4
 4023058:	1808943a 	slli	r4,r3,16
 402305c:	1820d43a 	srli	r16,r3,16
 4023060:	297fffcc 	andi	r5,r5,65535
 4023064:	2149883a 	add	r4,r4,r5
 4023068:	200691ba 	slli	r3,r4,6
 402306c:	8221883a 	add	r16,r16,r8
 4023070:	802091ba 	slli	r16,r16,6
 4023074:	2008d6ba 	srli	r4,r4,26
 4023078:	1806c03a 	cmpne	r3,r3,zero
 402307c:	8142002c 	andhi	r5,r16,2048
 4023080:	1908b03a 	or	r4,r3,r4
 4023084:	8120b03a 	or	r16,r16,r4
 4023088:	28007026 	beq	r5,zero,402324c <__mulsf3+0x398>
 402308c:	8006d07a 	srli	r3,r16,1
 4023090:	8400004c 	andi	r16,r16,1
 4023094:	1c20b03a 	or	r16,r3,r16
 4023098:	38c01fc4 	addi	r3,r7,127
 402309c:	00c0470e 	bge	zero,r3,40231bc <__mulsf3+0x308>
 40230a0:	810001cc 	andi	r4,r16,7
 40230a4:	20000426 	beq	r4,zero,40230b8 <__mulsf3+0x204>
 40230a8:	810003cc 	andi	r4,r16,15
 40230ac:	21000120 	cmpeqi	r4,r4,4
 40230b0:	2000011e 	bne	r4,zero,40230b8 <__mulsf3+0x204>
 40230b4:	84000104 	addi	r16,r16,4
 40230b8:	8102002c 	andhi	r4,r16,2048
 40230bc:	20000426 	beq	r4,zero,40230d0 <__mulsf3+0x21c>
 40230c0:	00fe0034 	movhi	r3,63488
 40230c4:	18ffffc4 	addi	r3,r3,-1
 40230c8:	80e0703a 	and	r16,r16,r3
 40230cc:	38c02004 	addi	r3,r7,128
 40230d0:	19003fc8 	cmpgei	r4,r3,255
 40230d4:	203fcf1e 	bne	r4,zero,4023014 <__mulsf3+0x160>
 40230d8:	802091ba 	slli	r16,r16,6
 40230dc:	8008d27a 	srli	r4,r16,9
 40230e0:	003fbd06 	br	4022fd8 <__mulsf3+0x124>
 40230e4:	9000281e 	bne	r18,zero,4023188 <__mulsf3+0x2d4>
 40230e8:	b5800054 	ori	r22,r22,1
 40230ec:	01000044 	movi	r4,1
 40230f0:	003f9506 	br	4022f48 <__mulsf3+0x94>
 40230f4:	8000191e 	bne	r16,zero,402315c <__mulsf3+0x2a8>
 40230f8:	05800104 	movi	r22,4
 40230fc:	0023883a 	mov	r17,zero
 4023100:	04c00044 	movi	r19,1
 4023104:	003f8206 	br	4022f10 <__mulsf3+0x5c>
 4023108:	8000101e 	bne	r16,zero,402314c <__mulsf3+0x298>
 402310c:	05800204 	movi	r22,8
 4023110:	04403fc4 	movi	r17,255
 4023114:	04c00084 	movi	r19,2
 4023118:	003f7d06 	br	4022f10 <__mulsf3+0x5c>
 402311c:	8c403fc4 	addi	r17,r17,255
 4023120:	9000071e 	bne	r18,zero,4023140 <__mulsf3+0x28c>
 4023124:	b5800094 	ori	r22,r22,2
 4023128:	01000084 	movi	r4,2
 402312c:	003f8606 	br	4022f48 <__mulsf3+0x94>
 4023130:	98c000a0 	cmpeqi	r3,r19,2
 4023134:	a005883a 	mov	r2,r20
 4023138:	183fa126 	beq	r3,zero,4022fc0 <__mulsf3+0x10c>
 402313c:	003fb506 	br	4023014 <__mulsf3+0x160>
 4023140:	b58000d4 	ori	r22,r22,3
 4023144:	010000c4 	movi	r4,3
 4023148:	003f7f06 	br	4022f48 <__mulsf3+0x94>
 402314c:	05800304 	movi	r22,12
 4023150:	04403fc4 	movi	r17,255
 4023154:	04c000c4 	movi	r19,3
 4023158:	003f6d06 	br	4022f10 <__mulsf3+0x5c>
 402315c:	8009883a 	mov	r4,r16
 4023160:	d9400015 	stw	r5,0(sp)
 4023164:	40233fc0 	call	40233fc <__clzsi2>
 4023168:	10fffec4 	addi	r3,r2,-5
 402316c:	047fe284 	movi	r17,-118
 4023170:	80e0983a 	sll	r16,r16,r3
 4023174:	d9400017 	ldw	r5,0(sp)
 4023178:	88a3c83a 	sub	r17,r17,r2
 402317c:	002d883a 	mov	r22,zero
 4023180:	0027883a 	mov	r19,zero
 4023184:	003f6206 	br	4022f10 <__mulsf3+0x5c>
 4023188:	9009883a 	mov	r4,r18
 402318c:	40233fc0 	call	40233fc <__clzsi2>
 4023190:	10fffec4 	addi	r3,r2,-5
 4023194:	88a3c83a 	sub	r17,r17,r2
 4023198:	90e4983a 	sll	r18,r18,r3
 402319c:	8c7fe284 	addi	r17,r17,-118
 40231a0:	0009883a 	mov	r4,zero
 40231a4:	003f6806 	br	4022f48 <__mulsf3+0x94>
 40231a8:	01002034 	movhi	r4,128
 40231ac:	0005883a 	mov	r2,zero
 40231b0:	213fffc4 	addi	r4,r4,-1
 40231b4:	00ffffc4 	movi	r3,-1
 40231b8:	003f8706 	br	4022fd8 <__mulsf3+0x124>
 40231bc:	01000044 	movi	r4,1
 40231c0:	20c7c83a 	sub	r3,r4,r3
 40231c4:	19000708 	cmpgei	r4,r3,28
 40231c8:	203f811e 	bne	r4,zero,4022fd0 <__mulsf3+0x11c>
 40231cc:	39002784 	addi	r4,r7,158
 40231d0:	8108983a 	sll	r4,r16,r4
 40231d4:	80e0d83a 	srl	r16,r16,r3
 40231d8:	2008c03a 	cmpne	r4,r4,zero
 40231dc:	8120b03a 	or	r16,r16,r4
 40231e0:	80c001cc 	andi	r3,r16,7
 40231e4:	18000426 	beq	r3,zero,40231f8 <__mulsf3+0x344>
 40231e8:	80c003cc 	andi	r3,r16,15
 40231ec:	18c00120 	cmpeqi	r3,r3,4
 40231f0:	1800011e 	bne	r3,zero,40231f8 <__mulsf3+0x344>
 40231f4:	84000104 	addi	r16,r16,4
 40231f8:	80c1002c 	andhi	r3,r16,1024
 40231fc:	183fb626 	beq	r3,zero,40230d8 <__mulsf3+0x224>
 4023200:	00c00044 	movi	r3,1
 4023204:	0009883a 	mov	r4,zero
 4023208:	003f7306 	br	4022fd8 <__mulsf3+0x124>
 402320c:	8080102c 	andhi	r2,r16,64
 4023210:	10000826 	beq	r2,zero,4023234 <__mulsf3+0x380>
 4023214:	9080102c 	andhi	r2,r18,64
 4023218:	1000061e 	bne	r2,zero,4023234 <__mulsf3+0x380>
 402321c:	00802034 	movhi	r2,128
 4023220:	10bfffc4 	addi	r2,r2,-1
 4023224:	91001034 	orhi	r4,r18,64
 4023228:	2088703a 	and	r4,r4,r2
 402322c:	a805883a 	mov	r2,r21
 4023230:	003fe006 	br	40231b4 <__mulsf3+0x300>
 4023234:	00802034 	movhi	r2,128
 4023238:	10bfffc4 	addi	r2,r2,-1
 402323c:	81001034 	orhi	r4,r16,64
 4023240:	2088703a 	and	r4,r4,r2
 4023244:	a005883a 	mov	r2,r20
 4023248:	003fda06 	br	40231b4 <__mulsf3+0x300>
 402324c:	880f883a 	mov	r7,r17
 4023250:	003f9106 	br	4023098 <__mulsf3+0x1e4>
 4023254:	00c02034 	movhi	r3,128
 4023258:	81001034 	orhi	r4,r16,64
 402325c:	18ffffc4 	addi	r3,r3,-1
 4023260:	20c8703a 	and	r4,r4,r3
 4023264:	003fd306 	br	40231b4 <__mulsf3+0x300>

04023268 <__fixsfsi>:
 4023268:	200ad5fa 	srli	r5,r4,23
 402326c:	00c02034 	movhi	r3,128
 4023270:	18ffffc4 	addi	r3,r3,-1
 4023274:	29403fcc 	andi	r5,r5,255
 4023278:	29801fd0 	cmplti	r6,r5,127
 402327c:	200ed7fa 	srli	r7,r4,31
 4023280:	1906703a 	and	r3,r3,r4
 4023284:	3000061e 	bne	r6,zero,40232a0 <__fixsfsi+0x38>
 4023288:	28802790 	cmplti	r2,r5,158
 402328c:	1000061e 	bne	r2,zero,40232a8 <__fixsfsi+0x40>
 4023290:	00a00034 	movhi	r2,32768
 4023294:	10bfffc4 	addi	r2,r2,-1
 4023298:	3885883a 	add	r2,r7,r2
 402329c:	f800283a 	ret
 40232a0:	0005883a 	mov	r2,zero
 40232a4:	f800283a 	ret
 40232a8:	28802590 	cmplti	r2,r5,150
 40232ac:	18c02034 	orhi	r3,r3,128
 40232b0:	1000051e 	bne	r2,zero,40232c8 <__fixsfsi+0x60>
 40232b4:	28bfda84 	addi	r2,r5,-150
 40232b8:	1884983a 	sll	r2,r3,r2
 40232bc:	383ff926 	beq	r7,zero,40232a4 <__fixsfsi+0x3c>
 40232c0:	0085c83a 	sub	r2,zero,r2
 40232c4:	f800283a 	ret
 40232c8:	00802584 	movi	r2,150
 40232cc:	1145c83a 	sub	r2,r2,r5
 40232d0:	1884d83a 	srl	r2,r3,r2
 40232d4:	003ff906 	br	40232bc <__fixsfsi+0x54>

040232d8 <__floatsisf>:
 40232d8:	defffd04 	addi	sp,sp,-12
 40232dc:	dfc00215 	stw	ra,8(sp)
 40232e0:	dc400115 	stw	r17,4(sp)
 40232e4:	dc000015 	stw	r16,0(sp)
 40232e8:	20001226 	beq	r4,zero,4023334 <__floatsisf+0x5c>
 40232ec:	2022d7fa 	srli	r17,r4,31
 40232f0:	2021883a 	mov	r16,r4
 40232f4:	20003816 	blt	r4,zero,40233d8 <__floatsisf+0x100>
 40232f8:	8009883a 	mov	r4,r16
 40232fc:	40233fc0 	call	40233fc <__clzsi2>
 4023300:	1009883a 	mov	r4,r2
 4023304:	00802784 	movi	r2,158
 4023308:	1105c83a 	sub	r2,r2,r4
 402330c:	10c025c8 	cmpgei	r3,r2,151
 4023310:	1800151e 	bne	r3,zero,4023368 <__floatsisf+0x90>
 4023314:	20c00248 	cmpgei	r3,r4,9
 4023318:	18003126 	beq	r3,zero,40233e0 <__floatsisf+0x108>
 402331c:	213ffe04 	addi	r4,r4,-8
 4023320:	8120983a 	sll	r16,r16,r4
 4023324:	00c02034 	movhi	r3,128
 4023328:	18ffffc4 	addi	r3,r3,-1
 402332c:	80e0703a 	and	r16,r16,r3
 4023330:	00000306 	br	4023340 <__floatsisf+0x68>
 4023334:	0023883a 	mov	r17,zero
 4023338:	0005883a 	mov	r2,zero
 402333c:	0021883a 	mov	r16,zero
 4023340:	10803fcc 	andi	r2,r2,255
 4023344:	100495fa 	slli	r2,r2,23
 4023348:	882297fa 	slli	r17,r17,31
 402334c:	1404b03a 	or	r2,r2,r16
 4023350:	1444b03a 	or	r2,r2,r17
 4023354:	dfc00217 	ldw	ra,8(sp)
 4023358:	dc400117 	ldw	r17,4(sp)
 402335c:	dc000017 	ldw	r16,0(sp)
 4023360:	dec00304 	addi	sp,sp,12
 4023364:	f800283a 	ret
 4023368:	10c02690 	cmplti	r3,r2,154
 402336c:	1800071e 	bne	r3,zero,402338c <__floatsisf+0xb4>
 4023370:	20c006c4 	addi	r3,r4,27
 4023374:	01400144 	movi	r5,5
 4023378:	80c6983a 	sll	r3,r16,r3
 402337c:	290bc83a 	sub	r5,r5,r4
 4023380:	814ad83a 	srl	r5,r16,r5
 4023384:	1806c03a 	cmpne	r3,r3,zero
 4023388:	28e0b03a 	or	r16,r5,r3
 402338c:	20c00188 	cmpgei	r3,r4,6
 4023390:	1800171e 	bne	r3,zero,40233f0 <__floatsisf+0x118>
 4023394:	00ff0034 	movhi	r3,64512
 4023398:	18ffffc4 	addi	r3,r3,-1
 402339c:	818001cc 	andi	r6,r16,7
 40233a0:	80ca703a 	and	r5,r16,r3
 40233a4:	30000926 	beq	r6,zero,40233cc <__floatsisf+0xf4>
 40233a8:	818003cc 	andi	r6,r16,15
 40233ac:	31800120 	cmpeqi	r6,r6,4
 40233b0:	3000061e 	bne	r6,zero,40233cc <__floatsisf+0xf4>
 40233b4:	29400104 	addi	r5,r5,4
 40233b8:	2981002c 	andhi	r6,r5,1024
 40233bc:	30000326 	beq	r6,zero,40233cc <__floatsisf+0xf4>
 40233c0:	28ca703a 	and	r5,r5,r3
 40233c4:	00c027c4 	movi	r3,159
 40233c8:	1905c83a 	sub	r2,r3,r4
 40233cc:	282091ba 	slli	r16,r5,6
 40233d0:	8020d27a 	srli	r16,r16,9
 40233d4:	003fda06 	br	4023340 <__floatsisf+0x68>
 40233d8:	0121c83a 	sub	r16,zero,r4
 40233dc:	003fc606 	br	40232f8 <__floatsisf+0x20>
 40233e0:	01002034 	movhi	r4,128
 40233e4:	213fffc4 	addi	r4,r4,-1
 40233e8:	8120703a 	and	r16,r16,r4
 40233ec:	003fd406 	br	4023340 <__floatsisf+0x68>
 40233f0:	20fffec4 	addi	r3,r4,-5
 40233f4:	80e0983a 	sll	r16,r16,r3
 40233f8:	003fe606 	br	4023394 <__floatsisf+0xbc>

040233fc <__clzsi2>:
 40233fc:	00bfffd4 	movui	r2,65535
 4023400:	11000436 	bltu	r2,r4,4023414 <__clzsi2+0x18>
 4023404:	20804030 	cmpltui	r2,r4,256
 4023408:	10000e26 	beq	r2,zero,4023444 <__clzsi2+0x48>
 402340c:	01400804 	movi	r5,32
 4023410:	00000406 	br	4023424 <__clzsi2+0x28>
 4023414:	00804034 	movhi	r2,256
 4023418:	20800736 	bltu	r4,r2,4023438 <__clzsi2+0x3c>
 402341c:	2008d63a 	srli	r4,r4,24
 4023420:	01400204 	movi	r5,8
 4023424:	00c00034 	movhi	r3,0
 4023428:	20c7883a 	add	r3,r4,r3
 402342c:	1880b103 	ldbu	r2,708(r3)
 4023430:	2885c83a 	sub	r2,r5,r2
 4023434:	f800283a 	ret
 4023438:	2008d43a 	srli	r4,r4,16
 402343c:	01400404 	movi	r5,16
 4023440:	003ff806 	br	4023424 <__clzsi2+0x28>
 4023444:	2008d23a 	srli	r4,r4,8
 4023448:	01400604 	movi	r5,24
 402344c:	003ff506 	br	4023424 <__clzsi2+0x28>

04023450 <_fclose_r.part.0>:
 4023450:	defffc04 	addi	sp,sp,-16
 4023454:	dc800215 	stw	r18,8(sp)
 4023458:	dc400115 	stw	r17,4(sp)
 402345c:	dc000015 	stw	r16,0(sp)
 4023460:	dfc00315 	stw	ra,12(sp)
 4023464:	2821883a 	mov	r16,r5
 4023468:	2023883a 	mov	r17,r4
 402346c:	40235f00 	call	40235f0 <__sflush_r>
 4023470:	80c00b17 	ldw	r3,44(r16)
 4023474:	1025883a 	mov	r18,r2
 4023478:	18000426 	beq	r3,zero,402348c <_fclose_r.part.0+0x3c>
 402347c:	81400717 	ldw	r5,28(r16)
 4023480:	8809883a 	mov	r4,r17
 4023484:	183ee83a 	callr	r3
 4023488:	10001916 	blt	r2,zero,40234f0 <_fclose_r.part.0+0xa0>
 402348c:	8080030b 	ldhu	r2,12(r16)
 4023490:	1080200c 	andi	r2,r2,128
 4023494:	10001a1e 	bne	r2,zero,4023500 <_fclose_r.part.0+0xb0>
 4023498:	81400c17 	ldw	r5,48(r16)
 402349c:	28000526 	beq	r5,zero,40234b4 <_fclose_r.part.0+0x64>
 40234a0:	80801004 	addi	r2,r16,64
 40234a4:	28800226 	beq	r5,r2,40234b0 <_fclose_r.part.0+0x60>
 40234a8:	8809883a 	mov	r4,r17
 40234ac:	4023fac0 	call	4023fac <_free_r>
 40234b0:	80000c15 	stw	zero,48(r16)
 40234b4:	81401117 	ldw	r5,68(r16)
 40234b8:	28000326 	beq	r5,zero,40234c8 <_fclose_r.part.0+0x78>
 40234bc:	8809883a 	mov	r4,r17
 40234c0:	4023fac0 	call	4023fac <_free_r>
 40234c4:	80001115 	stw	zero,68(r16)
 40234c8:	4023c600 	call	4023c60 <__sfp_lock_acquire>
 40234cc:	8000030d 	sth	zero,12(r16)
 40234d0:	4023c640 	call	4023c64 <__sfp_lock_release>
 40234d4:	9005883a 	mov	r2,r18
 40234d8:	dfc00317 	ldw	ra,12(sp)
 40234dc:	dc800217 	ldw	r18,8(sp)
 40234e0:	dc400117 	ldw	r17,4(sp)
 40234e4:	dc000017 	ldw	r16,0(sp)
 40234e8:	dec00404 	addi	sp,sp,16
 40234ec:	f800283a 	ret
 40234f0:	8080030b 	ldhu	r2,12(r16)
 40234f4:	04bfffc4 	movi	r18,-1
 40234f8:	1080200c 	andi	r2,r2,128
 40234fc:	103fe626 	beq	r2,zero,4023498 <_fclose_r.part.0+0x48>
 4023500:	81400417 	ldw	r5,16(r16)
 4023504:	8809883a 	mov	r4,r17
 4023508:	4023fac0 	call	4023fac <_free_r>
 402350c:	003fe206 	br	4023498 <_fclose_r.part.0+0x48>

04023510 <_fclose_r>:
 4023510:	28001926 	beq	r5,zero,4023578 <_fclose_r+0x68>
 4023514:	defffd04 	addi	sp,sp,-12
 4023518:	dc000115 	stw	r16,4(sp)
 402351c:	dfc00215 	stw	ra,8(sp)
 4023520:	2021883a 	mov	r16,r4
 4023524:	20000226 	beq	r4,zero,4023530 <_fclose_r+0x20>
 4023528:	20800e17 	ldw	r2,56(r4)
 402352c:	10000c26 	beq	r2,zero,4023560 <_fclose_r+0x50>
 4023530:	2880030f 	ldh	r2,12(r5)
 4023534:	1000051e 	bne	r2,zero,402354c <_fclose_r+0x3c>
 4023538:	0005883a 	mov	r2,zero
 402353c:	dfc00217 	ldw	ra,8(sp)
 4023540:	dc000117 	ldw	r16,4(sp)
 4023544:	dec00304 	addi	sp,sp,12
 4023548:	f800283a 	ret
 402354c:	8009883a 	mov	r4,r16
 4023550:	dfc00217 	ldw	ra,8(sp)
 4023554:	dc000117 	ldw	r16,4(sp)
 4023558:	dec00304 	addi	sp,sp,12
 402355c:	40234501 	jmpi	4023450 <_fclose_r.part.0>
 4023560:	d9400015 	stw	r5,0(sp)
 4023564:	4023c500 	call	4023c50 <__sinit>
 4023568:	d9400017 	ldw	r5,0(sp)
 402356c:	2880030f 	ldh	r2,12(r5)
 4023570:	103ff126 	beq	r2,zero,4023538 <_fclose_r+0x28>
 4023574:	003ff506 	br	402354c <_fclose_r+0x3c>
 4023578:	0005883a 	mov	r2,zero
 402357c:	f800283a 	ret

04023580 <fclose>:
 4023580:	20000826 	beq	r4,zero,40235a4 <fclose+0x24>
 4023584:	00800034 	movhi	r2,0
 4023588:	200b883a 	mov	r5,r4
 402358c:	11094e17 	ldw	r4,9528(r2)
 4023590:	20000226 	beq	r4,zero,402359c <fclose+0x1c>
 4023594:	20800e17 	ldw	r2,56(r4)
 4023598:	10000526 	beq	r2,zero,40235b0 <fclose+0x30>
 402359c:	2880030f 	ldh	r2,12(r5)
 40235a0:	1000021e 	bne	r2,zero,40235ac <fclose+0x2c>
 40235a4:	0005883a 	mov	r2,zero
 40235a8:	f800283a 	ret
 40235ac:	40234501 	jmpi	4023450 <_fclose_r.part.0>
 40235b0:	defffd04 	addi	sp,sp,-12
 40235b4:	d9400115 	stw	r5,4(sp)
 40235b8:	d9000015 	stw	r4,0(sp)
 40235bc:	dfc00215 	stw	ra,8(sp)
 40235c0:	4023c500 	call	4023c50 <__sinit>
 40235c4:	d9400117 	ldw	r5,4(sp)
 40235c8:	d9000017 	ldw	r4,0(sp)
 40235cc:	2880030f 	ldh	r2,12(r5)
 40235d0:	10000326 	beq	r2,zero,40235e0 <fclose+0x60>
 40235d4:	dfc00217 	ldw	ra,8(sp)
 40235d8:	dec00304 	addi	sp,sp,12
 40235dc:	40234501 	jmpi	4023450 <_fclose_r.part.0>
 40235e0:	0005883a 	mov	r2,zero
 40235e4:	dfc00217 	ldw	ra,8(sp)
 40235e8:	dec00304 	addi	sp,sp,12
 40235ec:	f800283a 	ret

040235f0 <__sflush_r>:
 40235f0:	2880030b 	ldhu	r2,12(r5)
 40235f4:	defffb04 	addi	sp,sp,-20
 40235f8:	dcc00315 	stw	r19,12(sp)
 40235fc:	dc000015 	stw	r16,0(sp)
 4023600:	dfc00415 	stw	ra,16(sp)
 4023604:	dc800215 	stw	r18,8(sp)
 4023608:	dc400115 	stw	r17,4(sp)
 402360c:	10c0020c 	andi	r3,r2,8
 4023610:	2821883a 	mov	r16,r5
 4023614:	2027883a 	mov	r19,r4
 4023618:	18003f1e 	bne	r3,zero,4023718 <__sflush_r+0x128>
 402361c:	28c00117 	ldw	r3,4(r5)
 4023620:	10820014 	ori	r2,r2,2048
 4023624:	2880030d 	sth	r2,12(r5)
 4023628:	00c0550e 	bge	zero,r3,4023780 <__sflush_r+0x190>
 402362c:	82000a17 	ldw	r8,40(r16)
 4023630:	40003126 	beq	r8,zero,40236f8 <__sflush_r+0x108>
 4023634:	9c400017 	ldw	r17,0(r19)
 4023638:	1104000c 	andi	r4,r2,4096
 402363c:	98000015 	stw	zero,0(r19)
 4023640:	81400717 	ldw	r5,28(r16)
 4023644:	1007883a 	mov	r3,r2
 4023648:	2000521e 	bne	r4,zero,4023794 <__sflush_r+0x1a4>
 402364c:	01c00044 	movi	r7,1
 4023650:	000d883a 	mov	r6,zero
 4023654:	9809883a 	mov	r4,r19
 4023658:	403ee83a 	callr	r8
 402365c:	10ffffd8 	cmpnei	r3,r2,-1
 4023660:	18005826 	beq	r3,zero,40237c4 <__sflush_r+0x1d4>
 4023664:	80c0030b 	ldhu	r3,12(r16)
 4023668:	82000a17 	ldw	r8,40(r16)
 402366c:	81400717 	ldw	r5,28(r16)
 4023670:	18c0010c 	andi	r3,r3,4
 4023674:	18000626 	beq	r3,zero,4023690 <__sflush_r+0xa0>
 4023678:	81000117 	ldw	r4,4(r16)
 402367c:	80c00c17 	ldw	r3,48(r16)
 4023680:	1105c83a 	sub	r2,r2,r4
 4023684:	18000226 	beq	r3,zero,4023690 <__sflush_r+0xa0>
 4023688:	80c00f17 	ldw	r3,60(r16)
 402368c:	10c5c83a 	sub	r2,r2,r3
 4023690:	100d883a 	mov	r6,r2
 4023694:	000f883a 	mov	r7,zero
 4023698:	9809883a 	mov	r4,r19
 402369c:	403ee83a 	callr	r8
 40236a0:	10ffffd8 	cmpnei	r3,r2,-1
 40236a4:	18003d1e 	bne	r3,zero,402379c <__sflush_r+0x1ac>
 40236a8:	99000017 	ldw	r4,0(r19)
 40236ac:	80c0030b 	ldhu	r3,12(r16)
 40236b0:	20004e26 	beq	r4,zero,40237ec <__sflush_r+0x1fc>
 40236b4:	21400760 	cmpeqi	r5,r4,29
 40236b8:	2800021e 	bne	r5,zero,40236c4 <__sflush_r+0xd4>
 40236bc:	210005a0 	cmpeqi	r4,r4,22
 40236c0:	20002c26 	beq	r4,zero,4023774 <__sflush_r+0x184>
 40236c4:	80800417 	ldw	r2,16(r16)
 40236c8:	18fdffcc 	andi	r3,r3,63487
 40236cc:	80c0030d 	sth	r3,12(r16)
 40236d0:	80000115 	stw	zero,4(r16)
 40236d4:	80800015 	stw	r2,0(r16)
 40236d8:	81400c17 	ldw	r5,48(r16)
 40236dc:	9c400015 	stw	r17,0(r19)
 40236e0:	28000526 	beq	r5,zero,40236f8 <__sflush_r+0x108>
 40236e4:	80801004 	addi	r2,r16,64
 40236e8:	28800226 	beq	r5,r2,40236f4 <__sflush_r+0x104>
 40236ec:	9809883a 	mov	r4,r19
 40236f0:	4023fac0 	call	4023fac <_free_r>
 40236f4:	80000c15 	stw	zero,48(r16)
 40236f8:	0005883a 	mov	r2,zero
 40236fc:	dfc00417 	ldw	ra,16(sp)
 4023700:	dcc00317 	ldw	r19,12(sp)
 4023704:	dc800217 	ldw	r18,8(sp)
 4023708:	dc400117 	ldw	r17,4(sp)
 402370c:	dc000017 	ldw	r16,0(sp)
 4023710:	dec00504 	addi	sp,sp,20
 4023714:	f800283a 	ret
 4023718:	2c800417 	ldw	r18,16(r5)
 402371c:	903ff626 	beq	r18,zero,40236f8 <__sflush_r+0x108>
 4023720:	2c400017 	ldw	r17,0(r5)
 4023724:	108000cc 	andi	r2,r2,3
 4023728:	2c800015 	stw	r18,0(r5)
 402372c:	8ca3c83a 	sub	r17,r17,r18
 4023730:	1000161e 	bne	r2,zero,402378c <__sflush_r+0x19c>
 4023734:	28800517 	ldw	r2,20(r5)
 4023738:	80800215 	stw	r2,8(r16)
 402373c:	04400316 	blt	zero,r17,402374c <__sflush_r+0x15c>
 4023740:	003fed06 	br	40236f8 <__sflush_r+0x108>
 4023744:	90a5883a 	add	r18,r18,r2
 4023748:	047feb0e 	bge	zero,r17,40236f8 <__sflush_r+0x108>
 402374c:	80800917 	ldw	r2,36(r16)
 4023750:	81400717 	ldw	r5,28(r16)
 4023754:	880f883a 	mov	r7,r17
 4023758:	900d883a 	mov	r6,r18
 402375c:	9809883a 	mov	r4,r19
 4023760:	103ee83a 	callr	r2
 4023764:	88a3c83a 	sub	r17,r17,r2
 4023768:	00bff616 	blt	zero,r2,4023744 <__sflush_r+0x154>
 402376c:	80c0030b 	ldhu	r3,12(r16)
 4023770:	00bfffc4 	movi	r2,-1
 4023774:	18c01014 	ori	r3,r3,64
 4023778:	80c0030d 	sth	r3,12(r16)
 402377c:	003fdf06 	br	40236fc <__sflush_r+0x10c>
 4023780:	28c00f17 	ldw	r3,60(r5)
 4023784:	00ffa916 	blt	zero,r3,402362c <__sflush_r+0x3c>
 4023788:	003fdb06 	br	40236f8 <__sflush_r+0x108>
 402378c:	0005883a 	mov	r2,zero
 4023790:	003fe906 	br	4023738 <__sflush_r+0x148>
 4023794:	80801417 	ldw	r2,80(r16)
 4023798:	003fb506 	br	4023670 <__sflush_r+0x80>
 402379c:	80c0030b 	ldhu	r3,12(r16)
 40237a0:	81000417 	ldw	r4,16(r16)
 40237a4:	80000115 	stw	zero,4(r16)
 40237a8:	197dffcc 	andi	r5,r3,63487
 40237ac:	8140030d 	sth	r5,12(r16)
 40237b0:	81000015 	stw	r4,0(r16)
 40237b4:	18c4000c 	andi	r3,r3,4096
 40237b8:	183fc726 	beq	r3,zero,40236d8 <__sflush_r+0xe8>
 40237bc:	80801415 	stw	r2,80(r16)
 40237c0:	003fc506 	br	40236d8 <__sflush_r+0xe8>
 40237c4:	98c00017 	ldw	r3,0(r19)
 40237c8:	183fa626 	beq	r3,zero,4023664 <__sflush_r+0x74>
 40237cc:	19000760 	cmpeqi	r4,r3,29
 40237d0:	20000e1e 	bne	r4,zero,402380c <__sflush_r+0x21c>
 40237d4:	18c00598 	cmpnei	r3,r3,22
 40237d8:	18000c26 	beq	r3,zero,402380c <__sflush_r+0x21c>
 40237dc:	80c0030b 	ldhu	r3,12(r16)
 40237e0:	18c01014 	ori	r3,r3,64
 40237e4:	80c0030d 	sth	r3,12(r16)
 40237e8:	003fc406 	br	40236fc <__sflush_r+0x10c>
 40237ec:	81000417 	ldw	r4,16(r16)
 40237f0:	197dffcc 	andi	r5,r3,63487
 40237f4:	8140030d 	sth	r5,12(r16)
 40237f8:	80000115 	stw	zero,4(r16)
 40237fc:	81000015 	stw	r4,0(r16)
 4023800:	18c4000c 	andi	r3,r3,4096
 4023804:	183fb426 	beq	r3,zero,40236d8 <__sflush_r+0xe8>
 4023808:	003fec06 	br	40237bc <__sflush_r+0x1cc>
 402380c:	9c400015 	stw	r17,0(r19)
 4023810:	0005883a 	mov	r2,zero
 4023814:	003fb906 	br	40236fc <__sflush_r+0x10c>

04023818 <_fflush_r>:
 4023818:	defffd04 	addi	sp,sp,-12
 402381c:	dc000115 	stw	r16,4(sp)
 4023820:	dfc00215 	stw	ra,8(sp)
 4023824:	2021883a 	mov	r16,r4
 4023828:	20000226 	beq	r4,zero,4023834 <_fflush_r+0x1c>
 402382c:	20800e17 	ldw	r2,56(r4)
 4023830:	10000726 	beq	r2,zero,4023850 <_fflush_r+0x38>
 4023834:	2880030f 	ldh	r2,12(r5)
 4023838:	10000a1e 	bne	r2,zero,4023864 <_fflush_r+0x4c>
 402383c:	0005883a 	mov	r2,zero
 4023840:	dfc00217 	ldw	ra,8(sp)
 4023844:	dc000117 	ldw	r16,4(sp)
 4023848:	dec00304 	addi	sp,sp,12
 402384c:	f800283a 	ret
 4023850:	d9400015 	stw	r5,0(sp)
 4023854:	4023c500 	call	4023c50 <__sinit>
 4023858:	d9400017 	ldw	r5,0(sp)
 402385c:	2880030f 	ldh	r2,12(r5)
 4023860:	103ff626 	beq	r2,zero,402383c <_fflush_r+0x24>
 4023864:	8009883a 	mov	r4,r16
 4023868:	dfc00217 	ldw	ra,8(sp)
 402386c:	dc000117 	ldw	r16,4(sp)
 4023870:	dec00304 	addi	sp,sp,12
 4023874:	40235f01 	jmpi	40235f0 <__sflush_r>

04023878 <fflush>:
 4023878:	20001726 	beq	r4,zero,40238d8 <fflush+0x60>
 402387c:	00800034 	movhi	r2,0
 4023880:	200b883a 	mov	r5,r4
 4023884:	11094e17 	ldw	r4,9528(r2)
 4023888:	20000226 	beq	r4,zero,4023894 <fflush+0x1c>
 402388c:	20800e17 	ldw	r2,56(r4)
 4023890:	10000526 	beq	r2,zero,40238a8 <fflush+0x30>
 4023894:	2880030f 	ldh	r2,12(r5)
 4023898:	1000021e 	bne	r2,zero,40238a4 <fflush+0x2c>
 402389c:	0005883a 	mov	r2,zero
 40238a0:	f800283a 	ret
 40238a4:	40235f01 	jmpi	40235f0 <__sflush_r>
 40238a8:	defffd04 	addi	sp,sp,-12
 40238ac:	d9400115 	stw	r5,4(sp)
 40238b0:	d9000015 	stw	r4,0(sp)
 40238b4:	dfc00215 	stw	ra,8(sp)
 40238b8:	4023c500 	call	4023c50 <__sinit>
 40238bc:	d9400117 	ldw	r5,4(sp)
 40238c0:	d9000017 	ldw	r4,0(sp)
 40238c4:	2880030f 	ldh	r2,12(r5)
 40238c8:	10000826 	beq	r2,zero,40238ec <fflush+0x74>
 40238cc:	dfc00217 	ldw	ra,8(sp)
 40238d0:	dec00304 	addi	sp,sp,12
 40238d4:	40235f01 	jmpi	40235f0 <__sflush_r>
 40238d8:	00800034 	movhi	r2,0
 40238dc:	11094d17 	ldw	r4,9524(r2)
 40238e0:	014100b4 	movhi	r5,1026
 40238e4:	294e0604 	addi	r5,r5,14360
 40238e8:	40248ec1 	jmpi	40248ec <_fwalk_reent>
 40238ec:	0005883a 	mov	r2,zero
 40238f0:	dfc00217 	ldw	ra,8(sp)
 40238f4:	dec00304 	addi	sp,sp,12
 40238f8:	f800283a 	ret

040238fc <__fp_lock>:
 40238fc:	0005883a 	mov	r2,zero
 4023900:	f800283a 	ret

04023904 <_cleanup_r>:
 4023904:	014100b4 	movhi	r5,1026
 4023908:	294d4404 	addi	r5,r5,13584
 402390c:	40248ec1 	jmpi	40248ec <_fwalk_reent>

04023910 <__fp_unlock>:
 4023910:	0005883a 	mov	r2,zero
 4023914:	f800283a 	ret

04023918 <__sinit.part.0>:
 4023918:	00c100b4 	movhi	r3,1026
 402391c:	20800117 	ldw	r2,4(r4)
 4023920:	18ce4104 	addi	r3,r3,14596
 4023924:	20c00f15 	stw	r3,60(r4)
 4023928:	2140bb04 	addi	r5,r4,748
 402392c:	00c000c4 	movi	r3,3
 4023930:	20c0b915 	stw	r3,740(r4)
 4023934:	2140ba15 	stw	r5,744(r4)
 4023938:	2000b815 	stw	zero,736(r4)
 402393c:	10001705 	stb	zero,92(r2)
 4023940:	10001745 	stb	zero,93(r2)
 4023944:	10001785 	stb	zero,94(r2)
 4023948:	100017c5 	stb	zero,95(r2)
 402394c:	10001805 	stb	zero,96(r2)
 4023950:	10001845 	stb	zero,97(r2)
 4023954:	10001885 	stb	zero,98(r2)
 4023958:	100018c5 	stb	zero,99(r2)
 402395c:	00c00104 	movi	r3,4
 4023960:	10c00315 	stw	r3,12(r2)
 4023964:	020100b4 	movhi	r8,1026
 4023968:	20c00217 	ldw	r3,8(r4)
 402396c:	01c100b4 	movhi	r7,1026
 4023970:	018100b4 	movhi	r6,1026
 4023974:	014100b4 	movhi	r5,1026
 4023978:	4217a304 	addi	r8,r8,24204
 402397c:	39d7ba04 	addi	r7,r7,24296
 4023980:	3197da04 	addi	r6,r6,24424
 4023984:	2957f104 	addi	r5,r5,24516
 4023988:	02400074 	movhi	r9,1
 402398c:	10001915 	stw	zero,100(r2)
 4023990:	10000015 	stw	zero,0(r2)
 4023994:	10000115 	stw	zero,4(r2)
 4023998:	10000215 	stw	zero,8(r2)
 402399c:	10000415 	stw	zero,16(r2)
 40239a0:	10000515 	stw	zero,20(r2)
 40239a4:	10000615 	stw	zero,24(r2)
 40239a8:	10800715 	stw	r2,28(r2)
 40239ac:	12000815 	stw	r8,32(r2)
 40239b0:	11c00915 	stw	r7,36(r2)
 40239b4:	11800a15 	stw	r6,40(r2)
 40239b8:	11400b15 	stw	r5,44(r2)
 40239bc:	4a400284 	addi	r9,r9,10
 40239c0:	1a400315 	stw	r9,12(r3)
 40239c4:	18001915 	stw	zero,100(r3)
 40239c8:	18000015 	stw	zero,0(r3)
 40239cc:	18000115 	stw	zero,4(r3)
 40239d0:	18000215 	stw	zero,8(r3)
 40239d4:	18000415 	stw	zero,16(r3)
 40239d8:	18001705 	stb	zero,92(r3)
 40239dc:	18001745 	stb	zero,93(r3)
 40239e0:	18001785 	stb	zero,94(r3)
 40239e4:	180017c5 	stb	zero,95(r3)
 40239e8:	18001805 	stb	zero,96(r3)
 40239ec:	18001845 	stb	zero,97(r3)
 40239f0:	18001885 	stb	zero,98(r3)
 40239f4:	180018c5 	stb	zero,99(r3)
 40239f8:	20800317 	ldw	r2,12(r4)
 40239fc:	024000b4 	movhi	r9,2
 4023a00:	18000515 	stw	zero,20(r3)
 4023a04:	18000615 	stw	zero,24(r3)
 4023a08:	18c00715 	stw	r3,28(r3)
 4023a0c:	1a000815 	stw	r8,32(r3)
 4023a10:	19c00915 	stw	r7,36(r3)
 4023a14:	19800a15 	stw	r6,40(r3)
 4023a18:	19400b15 	stw	r5,44(r3)
 4023a1c:	4a400484 	addi	r9,r9,18
 4023a20:	10001915 	stw	zero,100(r2)
 4023a24:	10000015 	stw	zero,0(r2)
 4023a28:	10000115 	stw	zero,4(r2)
 4023a2c:	10000215 	stw	zero,8(r2)
 4023a30:	12400315 	stw	r9,12(r2)
 4023a34:	10000415 	stw	zero,16(r2)
 4023a38:	10000515 	stw	zero,20(r2)
 4023a3c:	10000615 	stw	zero,24(r2)
 4023a40:	10001705 	stb	zero,92(r2)
 4023a44:	10001745 	stb	zero,93(r2)
 4023a48:	10001785 	stb	zero,94(r2)
 4023a4c:	100017c5 	stb	zero,95(r2)
 4023a50:	10001805 	stb	zero,96(r2)
 4023a54:	10001845 	stb	zero,97(r2)
 4023a58:	10001885 	stb	zero,98(r2)
 4023a5c:	100018c5 	stb	zero,99(r2)
 4023a60:	10800715 	stw	r2,28(r2)
 4023a64:	12000815 	stw	r8,32(r2)
 4023a68:	11c00915 	stw	r7,36(r2)
 4023a6c:	11800a15 	stw	r6,40(r2)
 4023a70:	11400b15 	stw	r5,44(r2)
 4023a74:	00800044 	movi	r2,1
 4023a78:	20800e15 	stw	r2,56(r4)
 4023a7c:	f800283a 	ret

04023a80 <__sfmoreglue>:
 4023a80:	defffc04 	addi	sp,sp,-16
 4023a84:	dc400115 	stw	r17,4(sp)
 4023a88:	2c7fffc4 	addi	r17,r5,-1
 4023a8c:	8c401a24 	muli	r17,r17,104
 4023a90:	dc800215 	stw	r18,8(sp)
 4023a94:	2825883a 	mov	r18,r5
 4023a98:	89401d04 	addi	r5,r17,116
 4023a9c:	dc000015 	stw	r16,0(sp)
 4023aa0:	dfc00315 	stw	ra,12(sp)
 4023aa4:	4024ea00 	call	4024ea0 <_malloc_r>
 4023aa8:	1021883a 	mov	r16,r2
 4023aac:	10000726 	beq	r2,zero,4023acc <__sfmoreglue+0x4c>
 4023ab0:	11000304 	addi	r4,r2,12
 4023ab4:	10000015 	stw	zero,0(r2)
 4023ab8:	14800115 	stw	r18,4(r2)
 4023abc:	11000215 	stw	r4,8(r2)
 4023ac0:	89801a04 	addi	r6,r17,104
 4023ac4:	000b883a 	mov	r5,zero
 4023ac8:	40257800 	call	4025780 <memset>
 4023acc:	8005883a 	mov	r2,r16
 4023ad0:	dfc00317 	ldw	ra,12(sp)
 4023ad4:	dc800217 	ldw	r18,8(sp)
 4023ad8:	dc400117 	ldw	r17,4(sp)
 4023adc:	dc000017 	ldw	r16,0(sp)
 4023ae0:	dec00404 	addi	sp,sp,16
 4023ae4:	f800283a 	ret

04023ae8 <__sfp>:
 4023ae8:	defffb04 	addi	sp,sp,-20
 4023aec:	00800034 	movhi	r2,0
 4023af0:	dc000015 	stw	r16,0(sp)
 4023af4:	14094d17 	ldw	r16,9524(r2)
 4023af8:	dc400115 	stw	r17,4(sp)
 4023afc:	dfc00415 	stw	ra,16(sp)
 4023b00:	80800e17 	ldw	r2,56(r16)
 4023b04:	dcc00315 	stw	r19,12(sp)
 4023b08:	dc800215 	stw	r18,8(sp)
 4023b0c:	2023883a 	mov	r17,r4
 4023b10:	10003126 	beq	r2,zero,4023bd8 <__sfp+0xf0>
 4023b14:	8100ba17 	ldw	r4,744(r16)
 4023b18:	8140b917 	ldw	r5,740(r16)
 4023b1c:	04c00104 	movi	r19,4
 4023b20:	8400b804 	addi	r16,r16,736
 4023b24:	297fffc4 	addi	r5,r5,-1
 4023b28:	2800050e 	bge	r5,zero,4023b40 <__sfp+0x58>
 4023b2c:	00002406 	br	4023bc0 <__sfp+0xd8>
 4023b30:	297fffc4 	addi	r5,r5,-1
 4023b34:	28bfffd8 	cmpnei	r2,r5,-1
 4023b38:	21001a04 	addi	r4,r4,104
 4023b3c:	10002026 	beq	r2,zero,4023bc0 <__sfp+0xd8>
 4023b40:	2080030f 	ldh	r2,12(r4)
 4023b44:	103ffa1e 	bne	r2,zero,4023b30 <__sfp+0x48>
 4023b48:	00bffff4 	movhi	r2,65535
 4023b4c:	10800044 	addi	r2,r2,1
 4023b50:	20001915 	stw	zero,100(r4)
 4023b54:	20000015 	stw	zero,0(r4)
 4023b58:	20000115 	stw	zero,4(r4)
 4023b5c:	20000215 	stw	zero,8(r4)
 4023b60:	20800315 	stw	r2,12(r4)
 4023b64:	20000415 	stw	zero,16(r4)
 4023b68:	20000515 	stw	zero,20(r4)
 4023b6c:	20000615 	stw	zero,24(r4)
 4023b70:	20001705 	stb	zero,92(r4)
 4023b74:	20001745 	stb	zero,93(r4)
 4023b78:	20001785 	stb	zero,94(r4)
 4023b7c:	200017c5 	stb	zero,95(r4)
 4023b80:	20001805 	stb	zero,96(r4)
 4023b84:	20001845 	stb	zero,97(r4)
 4023b88:	20001885 	stb	zero,98(r4)
 4023b8c:	200018c5 	stb	zero,99(r4)
 4023b90:	20000c15 	stw	zero,48(r4)
 4023b94:	20000d15 	stw	zero,52(r4)
 4023b98:	20001115 	stw	zero,68(r4)
 4023b9c:	20001215 	stw	zero,72(r4)
 4023ba0:	2005883a 	mov	r2,r4
 4023ba4:	dfc00417 	ldw	ra,16(sp)
 4023ba8:	dcc00317 	ldw	r19,12(sp)
 4023bac:	dc800217 	ldw	r18,8(sp)
 4023bb0:	dc400117 	ldw	r17,4(sp)
 4023bb4:	dc000017 	ldw	r16,0(sp)
 4023bb8:	dec00504 	addi	sp,sp,20
 4023bbc:	f800283a 	ret
 4023bc0:	80800017 	ldw	r2,0(r16)
 4023bc4:	10000726 	beq	r2,zero,4023be4 <__sfp+0xfc>
 4023bc8:	11000217 	ldw	r4,8(r2)
 4023bcc:	11400117 	ldw	r5,4(r2)
 4023bd0:	1021883a 	mov	r16,r2
 4023bd4:	003fd306 	br	4023b24 <__sfp+0x3c>
 4023bd8:	8009883a 	mov	r4,r16
 4023bdc:	40239180 	call	4023918 <__sinit.part.0>
 4023be0:	003fcc06 	br	4023b14 <__sfp+0x2c>
 4023be4:	01406b04 	movi	r5,428
 4023be8:	8809883a 	mov	r4,r17
 4023bec:	4024ea00 	call	4024ea0 <_malloc_r>
 4023bf0:	1025883a 	mov	r18,r2
 4023bf4:	10000c26 	beq	r2,zero,4023c28 <__sfp+0x140>
 4023bf8:	11000304 	addi	r4,r2,12
 4023bfc:	11000215 	stw	r4,8(r2)
 4023c00:	000b883a 	mov	r5,zero
 4023c04:	10000015 	stw	zero,0(r2)
 4023c08:	14c00115 	stw	r19,4(r2)
 4023c0c:	01806804 	movi	r6,416
 4023c10:	40257800 	call	4025780 <memset>
 4023c14:	1009883a 	mov	r4,r2
 4023c18:	84800015 	stw	r18,0(r16)
 4023c1c:	014000c4 	movi	r5,3
 4023c20:	9021883a 	mov	r16,r18
 4023c24:	003fc606 	br	4023b40 <__sfp+0x58>
 4023c28:	80000015 	stw	zero,0(r16)
 4023c2c:	00800304 	movi	r2,12
 4023c30:	88800015 	stw	r2,0(r17)
 4023c34:	0009883a 	mov	r4,zero
 4023c38:	003fd906 	br	4023ba0 <__sfp+0xb8>

04023c3c <_cleanup>:
 4023c3c:	00800034 	movhi	r2,0
 4023c40:	11094d17 	ldw	r4,9524(r2)
 4023c44:	014100b4 	movhi	r5,1026
 4023c48:	294d4404 	addi	r5,r5,13584
 4023c4c:	40248ec1 	jmpi	40248ec <_fwalk_reent>

04023c50 <__sinit>:
 4023c50:	20800e17 	ldw	r2,56(r4)
 4023c54:	10000126 	beq	r2,zero,4023c5c <__sinit+0xc>
 4023c58:	f800283a 	ret
 4023c5c:	40239181 	jmpi	4023918 <__sinit.part.0>

04023c60 <__sfp_lock_acquire>:
 4023c60:	f800283a 	ret

04023c64 <__sfp_lock_release>:
 4023c64:	f800283a 	ret

04023c68 <__sinit_lock_acquire>:
 4023c68:	f800283a 	ret

04023c6c <__sinit_lock_release>:
 4023c6c:	f800283a 	ret

04023c70 <__fp_lock_all>:
 4023c70:	00800034 	movhi	r2,0
 4023c74:	11094e17 	ldw	r4,9528(r2)
 4023c78:	014100b4 	movhi	r5,1026
 4023c7c:	294e3f04 	addi	r5,r5,14588
 4023c80:	40248541 	jmpi	4024854 <_fwalk>

04023c84 <__fp_unlock_all>:
 4023c84:	00800034 	movhi	r2,0
 4023c88:	11094e17 	ldw	r4,9528(r2)
 4023c8c:	014100b4 	movhi	r5,1026
 4023c90:	294e4404 	addi	r5,r5,14608
 4023c94:	40248541 	jmpi	4024854 <_fwalk>

04023c98 <_fopen_r>:
 4023c98:	defffa04 	addi	sp,sp,-24
 4023c9c:	3007883a 	mov	r3,r6
 4023ca0:	dcc00415 	stw	r19,16(sp)
 4023ca4:	d80d883a 	mov	r6,sp
 4023ca8:	2827883a 	mov	r19,r5
 4023cac:	180b883a 	mov	r5,r3
 4023cb0:	dc800315 	stw	r18,12(sp)
 4023cb4:	dfc00515 	stw	ra,20(sp)
 4023cb8:	dc400215 	stw	r17,8(sp)
 4023cbc:	dc000115 	stw	r16,4(sp)
 4023cc0:	2025883a 	mov	r18,r4
 4023cc4:	4029fb00 	call	4029fb0 <__sflags>
 4023cc8:	10002726 	beq	r2,zero,4023d68 <_fopen_r+0xd0>
 4023ccc:	9009883a 	mov	r4,r18
 4023cd0:	1023883a 	mov	r17,r2
 4023cd4:	4023ae80 	call	4023ae8 <__sfp>
 4023cd8:	1021883a 	mov	r16,r2
 4023cdc:	10002226 	beq	r2,zero,4023d68 <_fopen_r+0xd0>
 4023ce0:	d9800017 	ldw	r6,0(sp)
 4023ce4:	01c06d84 	movi	r7,438
 4023ce8:	980b883a 	mov	r5,r19
 4023cec:	9009883a 	mov	r4,r18
 4023cf0:	40258700 	call	4025870 <_open_r>
 4023cf4:	10001916 	blt	r2,zero,4023d5c <_fopen_r+0xc4>
 4023cf8:	018100b4 	movhi	r6,1026
 4023cfc:	014100b4 	movhi	r5,1026
 4023d00:	010100b4 	movhi	r4,1026
 4023d04:	00c100b4 	movhi	r3,1026
 4023d08:	3197a304 	addi	r6,r6,24204
 4023d0c:	2957ba04 	addi	r5,r5,24296
 4023d10:	2117da04 	addi	r4,r4,24424
 4023d14:	18d7f104 	addi	r3,r3,24516
 4023d18:	8440030d 	sth	r17,12(r16)
 4023d1c:	8080038d 	sth	r2,14(r16)
 4023d20:	84000715 	stw	r16,28(r16)
 4023d24:	81800815 	stw	r6,32(r16)
 4023d28:	81400915 	stw	r5,36(r16)
 4023d2c:	81000a15 	stw	r4,40(r16)
 4023d30:	80c00b15 	stw	r3,44(r16)
 4023d34:	8c40400c 	andi	r17,r17,256
 4023d38:	88000d1e 	bne	r17,zero,4023d70 <_fopen_r+0xd8>
 4023d3c:	8005883a 	mov	r2,r16
 4023d40:	dfc00517 	ldw	ra,20(sp)
 4023d44:	dcc00417 	ldw	r19,16(sp)
 4023d48:	dc800317 	ldw	r18,12(sp)
 4023d4c:	dc400217 	ldw	r17,8(sp)
 4023d50:	dc000117 	ldw	r16,4(sp)
 4023d54:	dec00604 	addi	sp,sp,24
 4023d58:	f800283a 	ret
 4023d5c:	4023c600 	call	4023c60 <__sfp_lock_acquire>
 4023d60:	8000030d 	sth	zero,12(r16)
 4023d64:	4023c640 	call	4023c64 <__sfp_lock_release>
 4023d68:	0021883a 	mov	r16,zero
 4023d6c:	003ff306 	br	4023d3c <_fopen_r+0xa4>
 4023d70:	01c00084 	movi	r7,2
 4023d74:	000d883a 	mov	r6,zero
 4023d78:	800b883a 	mov	r5,r16
 4023d7c:	9009883a 	mov	r4,r18
 4023d80:	40242a80 	call	40242a8 <_fseek_r>
 4023d84:	003fed06 	br	4023d3c <_fopen_r+0xa4>

04023d88 <fopen>:
 4023d88:	00c00034 	movhi	r3,0
 4023d8c:	2005883a 	mov	r2,r4
 4023d90:	19094e17 	ldw	r4,9528(r3)
 4023d94:	280d883a 	mov	r6,r5
 4023d98:	100b883a 	mov	r5,r2
 4023d9c:	4023c981 	jmpi	4023c98 <_fopen_r>

04023da0 <_fprintf_r>:
 4023da0:	defffe04 	addi	sp,sp,-8
 4023da4:	2809883a 	mov	r4,r5
 4023da8:	300b883a 	mov	r5,r6
 4023dac:	dfc00015 	stw	ra,0(sp)
 4023db0:	d9c00115 	stw	r7,4(sp)
 4023db4:	d9800104 	addi	r6,sp,4
 4023db8:	40282100 	call	4028210 <__vfprintf_internal>
 4023dbc:	dfc00017 	ldw	ra,0(sp)
 4023dc0:	dec00204 	addi	sp,sp,8
 4023dc4:	f800283a 	ret

04023dc8 <fprintf>:
 4023dc8:	defffd04 	addi	sp,sp,-12
 4023dcc:	dfc00015 	stw	ra,0(sp)
 4023dd0:	d9800115 	stw	r6,4(sp)
 4023dd4:	d9c00215 	stw	r7,8(sp)
 4023dd8:	d9800104 	addi	r6,sp,4
 4023ddc:	40282100 	call	4028210 <__vfprintf_internal>
 4023de0:	dfc00017 	ldw	ra,0(sp)
 4023de4:	dec00304 	addi	sp,sp,12
 4023de8:	f800283a 	ret

04023dec <_fputc_r>:
 4023dec:	defffc04 	addi	sp,sp,-16
 4023df0:	dc000215 	stw	r16,8(sp)
 4023df4:	dfc00315 	stw	ra,12(sp)
 4023df8:	2021883a 	mov	r16,r4
 4023dfc:	20000226 	beq	r4,zero,4023e08 <_fputc_r+0x1c>
 4023e00:	20800e17 	ldw	r2,56(r4)
 4023e04:	10000526 	beq	r2,zero,4023e1c <_fputc_r+0x30>
 4023e08:	8009883a 	mov	r4,r16
 4023e0c:	dfc00317 	ldw	ra,12(sp)
 4023e10:	dc000217 	ldw	r16,8(sp)
 4023e14:	dec00404 	addi	sp,sp,16
 4023e18:	40258d41 	jmpi	40258d4 <_putc_r>
 4023e1c:	d9800115 	stw	r6,4(sp)
 4023e20:	d9400015 	stw	r5,0(sp)
 4023e24:	4023c500 	call	4023c50 <__sinit>
 4023e28:	d9800117 	ldw	r6,4(sp)
 4023e2c:	d9400017 	ldw	r5,0(sp)
 4023e30:	003ff506 	br	4023e08 <_fputc_r+0x1c>

04023e34 <fputc>:
 4023e34:	defffc04 	addi	sp,sp,-16
 4023e38:	00800034 	movhi	r2,0
 4023e3c:	dc400215 	stw	r17,8(sp)
 4023e40:	14494e17 	ldw	r17,9528(r2)
 4023e44:	dc000115 	stw	r16,4(sp)
 4023e48:	dfc00315 	stw	ra,12(sp)
 4023e4c:	2021883a 	mov	r16,r4
 4023e50:	280d883a 	mov	r6,r5
 4023e54:	88000226 	beq	r17,zero,4023e60 <fputc+0x2c>
 4023e58:	88800e17 	ldw	r2,56(r17)
 4023e5c:	10000726 	beq	r2,zero,4023e7c <fputc+0x48>
 4023e60:	800b883a 	mov	r5,r16
 4023e64:	8809883a 	mov	r4,r17
 4023e68:	dfc00317 	ldw	ra,12(sp)
 4023e6c:	dc400217 	ldw	r17,8(sp)
 4023e70:	dc000117 	ldw	r16,4(sp)
 4023e74:	dec00404 	addi	sp,sp,16
 4023e78:	40258d41 	jmpi	40258d4 <_putc_r>
 4023e7c:	8809883a 	mov	r4,r17
 4023e80:	d9400015 	stw	r5,0(sp)
 4023e84:	4023c500 	call	4023c50 <__sinit>
 4023e88:	d9800017 	ldw	r6,0(sp)
 4023e8c:	003ff406 	br	4023e60 <fputc+0x2c>

04023e90 <_malloc_trim_r>:
 4023e90:	defffb04 	addi	sp,sp,-20
 4023e94:	dcc00315 	stw	r19,12(sp)
 4023e98:	04c00034 	movhi	r19,0
 4023e9c:	dc800215 	stw	r18,8(sp)
 4023ea0:	dc400115 	stw	r17,4(sp)
 4023ea4:	dc000015 	stw	r16,0(sp)
 4023ea8:	dfc00415 	stw	ra,16(sp)
 4023eac:	2821883a 	mov	r16,r5
 4023eb0:	9cc36204 	addi	r19,r19,3464
 4023eb4:	2025883a 	mov	r18,r4
 4023eb8:	40318000 	call	4031800 <__malloc_lock>
 4023ebc:	98800217 	ldw	r2,8(r19)
 4023ec0:	14400117 	ldw	r17,4(r2)
 4023ec4:	00bfff04 	movi	r2,-4
 4023ec8:	88a2703a 	and	r17,r17,r2
 4023ecc:	8c21c83a 	sub	r16,r17,r16
 4023ed0:	8403fbc4 	addi	r16,r16,4079
 4023ed4:	8020d33a 	srli	r16,r16,12
 4023ed8:	843fffc4 	addi	r16,r16,-1
 4023edc:	8020933a 	slli	r16,r16,12
 4023ee0:	80840008 	cmpgei	r2,r16,4096
 4023ee4:	10000626 	beq	r2,zero,4023f00 <_malloc_trim_r+0x70>
 4023ee8:	000b883a 	mov	r5,zero
 4023eec:	9009883a 	mov	r4,r18
 4023ef0:	4025e340 	call	4025e34 <_sbrk_r>
 4023ef4:	98c00217 	ldw	r3,8(r19)
 4023ef8:	1c47883a 	add	r3,r3,r17
 4023efc:	10c00a26 	beq	r2,r3,4023f28 <_malloc_trim_r+0x98>
 4023f00:	9009883a 	mov	r4,r18
 4023f04:	40318240 	call	4031824 <__malloc_unlock>
 4023f08:	0005883a 	mov	r2,zero
 4023f0c:	dfc00417 	ldw	ra,16(sp)
 4023f10:	dcc00317 	ldw	r19,12(sp)
 4023f14:	dc800217 	ldw	r18,8(sp)
 4023f18:	dc400117 	ldw	r17,4(sp)
 4023f1c:	dc000017 	ldw	r16,0(sp)
 4023f20:	dec00504 	addi	sp,sp,20
 4023f24:	f800283a 	ret
 4023f28:	040bc83a 	sub	r5,zero,r16
 4023f2c:	9009883a 	mov	r4,r18
 4023f30:	4025e340 	call	4025e34 <_sbrk_r>
 4023f34:	10bfffd8 	cmpnei	r2,r2,-1
 4023f38:	10000d26 	beq	r2,zero,4023f70 <_malloc_trim_r+0xe0>
 4023f3c:	00800034 	movhi	r2,0
 4023f40:	1089cc17 	ldw	r2,10032(r2)
 4023f44:	98c00217 	ldw	r3,8(r19)
 4023f48:	8c23c83a 	sub	r17,r17,r16
 4023f4c:	8c400054 	ori	r17,r17,1
 4023f50:	1421c83a 	sub	r16,r2,r16
 4023f54:	1c400115 	stw	r17,4(r3)
 4023f58:	00800034 	movhi	r2,0
 4023f5c:	9009883a 	mov	r4,r18
 4023f60:	1409cc15 	stw	r16,10032(r2)
 4023f64:	40318240 	call	4031824 <__malloc_unlock>
 4023f68:	00800044 	movi	r2,1
 4023f6c:	003fe706 	br	4023f0c <_malloc_trim_r+0x7c>
 4023f70:	000b883a 	mov	r5,zero
 4023f74:	9009883a 	mov	r4,r18
 4023f78:	4025e340 	call	4025e34 <_sbrk_r>
 4023f7c:	99000217 	ldw	r4,8(r19)
 4023f80:	1107c83a 	sub	r3,r2,r4
 4023f84:	19400410 	cmplti	r5,r3,16
 4023f88:	283fdd1e 	bne	r5,zero,4023f00 <_malloc_trim_r+0x70>
 4023f8c:	01400034 	movhi	r5,0
 4023f90:	29494f17 	ldw	r5,9532(r5)
 4023f94:	18c00054 	ori	r3,r3,1
 4023f98:	20c00115 	stw	r3,4(r4)
 4023f9c:	1145c83a 	sub	r2,r2,r5
 4023fa0:	01400034 	movhi	r5,0
 4023fa4:	2889cc15 	stw	r2,10032(r5)
 4023fa8:	003fd506 	br	4023f00 <_malloc_trim_r+0x70>

04023fac <_free_r>:
 4023fac:	28004f26 	beq	r5,zero,40240ec <_free_r+0x140>
 4023fb0:	defffd04 	addi	sp,sp,-12
 4023fb4:	dc400115 	stw	r17,4(sp)
 4023fb8:	dc000015 	stw	r16,0(sp)
 4023fbc:	2023883a 	mov	r17,r4
 4023fc0:	2821883a 	mov	r16,r5
 4023fc4:	dfc00215 	stw	ra,8(sp)
 4023fc8:	40318000 	call	4031800 <__malloc_lock>
 4023fcc:	81ffff17 	ldw	r7,-4(r16)
 4023fd0:	00bfff84 	movi	r2,-2
 4023fd4:	80fffe04 	addi	r3,r16,-8
 4023fd8:	3884703a 	and	r2,r7,r2
 4023fdc:	01000034 	movhi	r4,0
 4023fe0:	188d883a 	add	r6,r3,r2
 4023fe4:	21036204 	addi	r4,r4,3464
 4023fe8:	31400117 	ldw	r5,4(r6)
 4023fec:	22000217 	ldw	r8,8(r4)
 4023ff0:	027fff04 	movi	r9,-4
 4023ff4:	2a4a703a 	and	r5,r5,r9
 4023ff8:	41806426 	beq	r8,r6,402418c <_free_r+0x1e0>
 4023ffc:	31400115 	stw	r5,4(r6)
 4024000:	39c0004c 	andi	r7,r7,1
 4024004:	3151883a 	add	r8,r6,r5
 4024008:	3800281e 	bne	r7,zero,40240ac <_free_r+0x100>
 402400c:	82bffe17 	ldw	r10,-8(r16)
 4024010:	42000117 	ldw	r8,4(r8)
 4024014:	01c00034 	movhi	r7,0
 4024018:	1a87c83a 	sub	r3,r3,r10
 402401c:	1a400217 	ldw	r9,8(r3)
 4024020:	39c36404 	addi	r7,r7,3472
 4024024:	1285883a 	add	r2,r2,r10
 4024028:	4200004c 	andi	r8,r8,1
 402402c:	49c04c26 	beq	r9,r7,4024160 <_free_r+0x1b4>
 4024030:	1a800317 	ldw	r10,12(r3)
 4024034:	4a800315 	stw	r10,12(r9)
 4024038:	52400215 	stw	r9,8(r10)
 402403c:	40007126 	beq	r8,zero,4024204 <_free_r+0x258>
 4024040:	11400054 	ori	r5,r2,1
 4024044:	19400115 	stw	r5,4(r3)
 4024048:	30800015 	stw	r2,0(r6)
 402404c:	11408028 	cmpgeui	r5,r2,512
 4024050:	28002c1e 	bne	r5,zero,4024104 <_free_r+0x158>
 4024054:	100ad0fa 	srli	r5,r2,3
 4024058:	100cd17a 	srli	r6,r2,5
 402405c:	00800044 	movi	r2,1
 4024060:	29400044 	addi	r5,r5,1
 4024064:	280a90fa 	slli	r5,r5,3
 4024068:	21c00117 	ldw	r7,4(r4)
 402406c:	1184983a 	sll	r2,r2,r6
 4024070:	214b883a 	add	r5,r4,r5
 4024074:	29800017 	ldw	r6,0(r5)
 4024078:	11c4b03a 	or	r2,r2,r7
 402407c:	29fffe04 	addi	r7,r5,-8
 4024080:	19c00315 	stw	r7,12(r3)
 4024084:	19800215 	stw	r6,8(r3)
 4024088:	20800115 	stw	r2,4(r4)
 402408c:	28c00015 	stw	r3,0(r5)
 4024090:	30c00315 	stw	r3,12(r6)
 4024094:	8809883a 	mov	r4,r17
 4024098:	dfc00217 	ldw	ra,8(sp)
 402409c:	dc400117 	ldw	r17,4(sp)
 40240a0:	dc000017 	ldw	r16,0(sp)
 40240a4:	dec00304 	addi	sp,sp,12
 40240a8:	40318241 	jmpi	4031824 <__malloc_unlock>
 40240ac:	41c00117 	ldw	r7,4(r8)
 40240b0:	39c0004c 	andi	r7,r7,1
 40240b4:	38000e1e 	bne	r7,zero,40240f0 <_free_r+0x144>
 40240b8:	01c00034 	movhi	r7,0
 40240bc:	1145883a 	add	r2,r2,r5
 40240c0:	39c36404 	addi	r7,r7,3472
 40240c4:	31400217 	ldw	r5,8(r6)
 40240c8:	12400054 	ori	r9,r2,1
 40240cc:	1891883a 	add	r8,r3,r2
 40240d0:	29c05226 	beq	r5,r7,402421c <_free_r+0x270>
 40240d4:	31800317 	ldw	r6,12(r6)
 40240d8:	29800315 	stw	r6,12(r5)
 40240dc:	31400215 	stw	r5,8(r6)
 40240e0:	1a400115 	stw	r9,4(r3)
 40240e4:	40800015 	stw	r2,0(r8)
 40240e8:	003fd806 	br	402404c <_free_r+0xa0>
 40240ec:	f800283a 	ret
 40240f0:	11400054 	ori	r5,r2,1
 40240f4:	817fff15 	stw	r5,-4(r16)
 40240f8:	30800015 	stw	r2,0(r6)
 40240fc:	11408028 	cmpgeui	r5,r2,512
 4024100:	283fd426 	beq	r5,zero,4024054 <_free_r+0xa8>
 4024104:	100ad27a 	srli	r5,r2,9
 4024108:	29800168 	cmpgeui	r6,r5,5
 402410c:	3000341e 	bne	r6,zero,40241e0 <_free_r+0x234>
 4024110:	100ad1ba 	srli	r5,r2,6
 4024114:	29800e44 	addi	r6,r5,57
 4024118:	300c90fa 	slli	r6,r6,3
 402411c:	29c00e04 	addi	r7,r5,56
 4024120:	218d883a 	add	r6,r4,r6
 4024124:	31400017 	ldw	r5,0(r6)
 4024128:	31bffe04 	addi	r6,r6,-8
 402412c:	31404226 	beq	r6,r5,4024238 <_free_r+0x28c>
 4024130:	01ffff04 	movi	r7,-4
 4024134:	29000117 	ldw	r4,4(r5)
 4024138:	21c8703a 	and	r4,r4,r7
 402413c:	1100022e 	bgeu	r2,r4,4024148 <_free_r+0x19c>
 4024140:	29400217 	ldw	r5,8(r5)
 4024144:	317ffb1e 	bne	r6,r5,4024134 <_free_r+0x188>
 4024148:	29800317 	ldw	r6,12(r5)
 402414c:	19800315 	stw	r6,12(r3)
 4024150:	19400215 	stw	r5,8(r3)
 4024154:	30c00215 	stw	r3,8(r6)
 4024158:	28c00315 	stw	r3,12(r5)
 402415c:	003fcd06 	br	4024094 <_free_r+0xe8>
 4024160:	40004d1e 	bne	r8,zero,4024298 <_free_r+0x2ec>
 4024164:	31000317 	ldw	r4,12(r6)
 4024168:	31800217 	ldw	r6,8(r6)
 402416c:	2885883a 	add	r2,r5,r2
 4024170:	11400054 	ori	r5,r2,1
 4024174:	31000315 	stw	r4,12(r6)
 4024178:	21800215 	stw	r6,8(r4)
 402417c:	19400115 	stw	r5,4(r3)
 4024180:	1887883a 	add	r3,r3,r2
 4024184:	18800015 	stw	r2,0(r3)
 4024188:	003fc206 	br	4024094 <_free_r+0xe8>
 402418c:	39c0004c 	andi	r7,r7,1
 4024190:	1145883a 	add	r2,r2,r5
 4024194:	3800071e 	bne	r7,zero,40241b4 <_free_r+0x208>
 4024198:	81fffe17 	ldw	r7,-8(r16)
 402419c:	19c7c83a 	sub	r3,r3,r7
 40241a0:	19400317 	ldw	r5,12(r3)
 40241a4:	19800217 	ldw	r6,8(r3)
 40241a8:	11c5883a 	add	r2,r2,r7
 40241ac:	31400315 	stw	r5,12(r6)
 40241b0:	29800215 	stw	r6,8(r5)
 40241b4:	01400034 	movhi	r5,0
 40241b8:	11800054 	ori	r6,r2,1
 40241bc:	29495017 	ldw	r5,9536(r5)
 40241c0:	19800115 	stw	r6,4(r3)
 40241c4:	20c00215 	stw	r3,8(r4)
 40241c8:	117fb236 	bltu	r2,r5,4024094 <_free_r+0xe8>
 40241cc:	00800034 	movhi	r2,0
 40241d0:	11496017 	ldw	r5,9600(r2)
 40241d4:	8809883a 	mov	r4,r17
 40241d8:	4023e900 	call	4023e90 <_malloc_trim_r>
 40241dc:	003fad06 	br	4024094 <_free_r+0xe8>
 40241e0:	29800568 	cmpgeui	r6,r5,21
 40241e4:	30000926 	beq	r6,zero,402420c <_free_r+0x260>
 40241e8:	29801568 	cmpgeui	r6,r5,85
 40241ec:	3000191e 	bne	r6,zero,4024254 <_free_r+0x2a8>
 40241f0:	100ad33a 	srli	r5,r2,12
 40241f4:	29801bc4 	addi	r6,r5,111
 40241f8:	300c90fa 	slli	r6,r6,3
 40241fc:	29c01b84 	addi	r7,r5,110
 4024200:	003fc706 	br	4024120 <_free_r+0x174>
 4024204:	1145883a 	add	r2,r2,r5
 4024208:	003fae06 	br	40240c4 <_free_r+0x118>
 402420c:	29801704 	addi	r6,r5,92
 4024210:	300c90fa 	slli	r6,r6,3
 4024214:	29c016c4 	addi	r7,r5,91
 4024218:	003fc106 	br	4024120 <_free_r+0x174>
 402421c:	20c00515 	stw	r3,20(r4)
 4024220:	20c00415 	stw	r3,16(r4)
 4024224:	19c00315 	stw	r7,12(r3)
 4024228:	19c00215 	stw	r7,8(r3)
 402422c:	1a400115 	stw	r9,4(r3)
 4024230:	40800015 	stw	r2,0(r8)
 4024234:	003f9706 	br	4024094 <_free_r+0xe8>
 4024238:	380fd0ba 	srai	r7,r7,2
 402423c:	00800044 	movi	r2,1
 4024240:	22000117 	ldw	r8,4(r4)
 4024244:	11ce983a 	sll	r7,r2,r7
 4024248:	3a0eb03a 	or	r7,r7,r8
 402424c:	21c00115 	stw	r7,4(r4)
 4024250:	003fbe06 	br	402414c <_free_r+0x1a0>
 4024254:	29805568 	cmpgeui	r6,r5,341
 4024258:	3000051e 	bne	r6,zero,4024270 <_free_r+0x2c4>
 402425c:	100ad3fa 	srli	r5,r2,15
 4024260:	29801e04 	addi	r6,r5,120
 4024264:	300c90fa 	slli	r6,r6,3
 4024268:	29c01dc4 	addi	r7,r5,119
 402426c:	003fac06 	br	4024120 <_free_r+0x174>
 4024270:	29415568 	cmpgeui	r5,r5,1365
 4024274:	2800051e 	bne	r5,zero,402428c <_free_r+0x2e0>
 4024278:	100ad4ba 	srli	r5,r2,18
 402427c:	29801f44 	addi	r6,r5,125
 4024280:	300c90fa 	slli	r6,r6,3
 4024284:	29c01f04 	addi	r7,r5,124
 4024288:	003fa506 	br	4024120 <_free_r+0x174>
 402428c:	0180fe04 	movi	r6,1016
 4024290:	01c01f84 	movi	r7,126
 4024294:	003fa206 	br	4024120 <_free_r+0x174>
 4024298:	11000054 	ori	r4,r2,1
 402429c:	19000115 	stw	r4,4(r3)
 40242a0:	30800015 	stw	r2,0(r6)
 40242a4:	003f7b06 	br	4024094 <_free_r+0xe8>

040242a8 <_fseek_r>:
 40242a8:	40242c81 	jmpi	40242c8 <_fseeko_r>

040242ac <fseek>:
 40242ac:	00c00034 	movhi	r3,0
 40242b0:	2005883a 	mov	r2,r4
 40242b4:	19094e17 	ldw	r4,9528(r3)
 40242b8:	300f883a 	mov	r7,r6
 40242bc:	280d883a 	mov	r6,r5
 40242c0:	100b883a 	mov	r5,r2
 40242c4:	40242c81 	jmpi	40242c8 <_fseeko_r>

040242c8 <_fseeko_r>:
 40242c8:	deffe504 	addi	sp,sp,-108
 40242cc:	dd001615 	stw	r20,88(sp)
 40242d0:	dcc01515 	stw	r19,84(sp)
 40242d4:	dc401315 	stw	r17,76(sp)
 40242d8:	dc001215 	stw	r16,72(sp)
 40242dc:	dfc01a15 	stw	ra,104(sp)
 40242e0:	ddc01915 	stw	r23,100(sp)
 40242e4:	dd801815 	stw	r22,96(sp)
 40242e8:	dd401715 	stw	r21,92(sp)
 40242ec:	dc801415 	stw	r18,80(sp)
 40242f0:	2023883a 	mov	r17,r4
 40242f4:	2821883a 	mov	r16,r5
 40242f8:	3027883a 	mov	r19,r6
 40242fc:	3829883a 	mov	r20,r7
 4024300:	20000226 	beq	r4,zero,402430c <_fseeko_r+0x44>
 4024304:	20800e17 	ldw	r2,56(r4)
 4024308:	10001a26 	beq	r2,zero,4024374 <_fseeko_r+0xac>
 402430c:	8080030b 	ldhu	r2,12(r16)
 4024310:	1080420c 	andi	r2,r2,264
 4024314:	10804218 	cmpnei	r2,r2,264
 4024318:	10001b26 	beq	r2,zero,4024388 <_fseeko_r+0xc0>
 402431c:	85400a17 	ldw	r21,40(r16)
 4024320:	a800de26 	beq	r21,zero,402469c <_fseeko_r+0x3d4>
 4024324:	a0800060 	cmpeqi	r2,r20,1
 4024328:	10001b1e 	bne	r2,zero,4024398 <_fseeko_r+0xd0>
 402432c:	04bfff44 	movi	r18,-3
 4024330:	a4a4703a 	and	r18,r20,r18
 4024334:	90004f26 	beq	r18,zero,4024474 <_fseeko_r+0x1ac>
 4024338:	00800584 	movi	r2,22
 402433c:	88800015 	stw	r2,0(r17)
 4024340:	04bfffc4 	movi	r18,-1
 4024344:	9005883a 	mov	r2,r18
 4024348:	dfc01a17 	ldw	ra,104(sp)
 402434c:	ddc01917 	ldw	r23,100(sp)
 4024350:	dd801817 	ldw	r22,96(sp)
 4024354:	dd401717 	ldw	r21,92(sp)
 4024358:	dd001617 	ldw	r20,88(sp)
 402435c:	dcc01517 	ldw	r19,84(sp)
 4024360:	dc801417 	ldw	r18,80(sp)
 4024364:	dc401317 	ldw	r17,76(sp)
 4024368:	dc001217 	ldw	r16,72(sp)
 402436c:	dec01b04 	addi	sp,sp,108
 4024370:	f800283a 	ret
 4024374:	4023c500 	call	4023c50 <__sinit>
 4024378:	8080030b 	ldhu	r2,12(r16)
 402437c:	1080420c 	andi	r2,r2,264
 4024380:	10804218 	cmpnei	r2,r2,264
 4024384:	103fe51e 	bne	r2,zero,402431c <_fseeko_r+0x54>
 4024388:	800b883a 	mov	r5,r16
 402438c:	8809883a 	mov	r4,r17
 4024390:	40238180 	call	4023818 <_fflush_r>
 4024394:	003fe106 	br	402431c <_fseeko_r+0x54>
 4024398:	800b883a 	mov	r5,r16
 402439c:	8809883a 	mov	r4,r17
 40243a0:	40247280 	call	4024728 <_ftello_r>
 40243a4:	1025883a 	mov	r18,r2
 40243a8:	10bfffd8 	cmpnei	r2,r2,-1
 40243ac:	103fe426 	beq	r2,zero,4024340 <_fseeko_r+0x78>
 40243b0:	80800417 	ldw	r2,16(r16)
 40243b4:	9ca7883a 	add	r19,r19,r18
 40243b8:	05800044 	movi	r22,1
 40243bc:	0029883a 	mov	r20,zero
 40243c0:	10002f26 	beq	r2,zero,4024480 <_fseeko_r+0x1b8>
 40243c4:	8080030b 	ldhu	r2,12(r16)
 40243c8:	10c2068c 	andi	r3,r2,2074
 40243cc:	1800071e 	bne	r3,zero,40243ec <_fseeko_r+0x124>
 40243d0:	10c1000c 	andi	r3,r2,1024
 40243d4:	18003d1e 	bne	r3,zero,40244cc <_fseeko_r+0x204>
 40243d8:	00c100b4 	movhi	r3,1026
 40243dc:	18d7da04 	addi	r3,r3,24424
 40243e0:	a8c02b26 	beq	r21,r3,4024490 <_fseeko_r+0x1c8>
 40243e4:	10820014 	ori	r2,r2,2048
 40243e8:	8080030d 	sth	r2,12(r16)
 40243ec:	800b883a 	mov	r5,r16
 40243f0:	8809883a 	mov	r4,r17
 40243f4:	40238180 	call	4023818 <_fflush_r>
 40243f8:	1025883a 	mov	r18,r2
 40243fc:	103fd01e 	bne	r2,zero,4024340 <_fseeko_r+0x78>
 4024400:	81400717 	ldw	r5,28(r16)
 4024404:	a00f883a 	mov	r7,r20
 4024408:	980d883a 	mov	r6,r19
 402440c:	8809883a 	mov	r4,r17
 4024410:	a83ee83a 	callr	r21
 4024414:	10bfffe0 	cmpeqi	r2,r2,-1
 4024418:	103fc91e 	bne	r2,zero,4024340 <_fseeko_r+0x78>
 402441c:	81400c17 	ldw	r5,48(r16)
 4024420:	28000526 	beq	r5,zero,4024438 <_fseeko_r+0x170>
 4024424:	80801004 	addi	r2,r16,64
 4024428:	28800226 	beq	r5,r2,4024434 <_fseeko_r+0x16c>
 402442c:	8809883a 	mov	r4,r17
 4024430:	4023fac0 	call	4023fac <_free_r>
 4024434:	80000c15 	stw	zero,48(r16)
 4024438:	8080030b 	ldhu	r2,12(r16)
 402443c:	80c00417 	ldw	r3,16(r16)
 4024440:	80000115 	stw	zero,4(r16)
 4024444:	10bdf7cc 	andi	r2,r2,63455
 4024448:	80c00015 	stw	r3,0(r16)
 402444c:	8080030d 	sth	r2,12(r16)
 4024450:	80001705 	stb	zero,92(r16)
 4024454:	80001745 	stb	zero,93(r16)
 4024458:	80001785 	stb	zero,94(r16)
 402445c:	800017c5 	stb	zero,95(r16)
 4024460:	80001805 	stb	zero,96(r16)
 4024464:	80001845 	stb	zero,97(r16)
 4024468:	80001885 	stb	zero,98(r16)
 402446c:	800018c5 	stb	zero,99(r16)
 4024470:	003fb406 	br	4024344 <_fseeko_r+0x7c>
 4024474:	80800417 	ldw	r2,16(r16)
 4024478:	002d883a 	mov	r22,zero
 402447c:	103fd11e 	bne	r2,zero,40243c4 <_fseeko_r+0xfc>
 4024480:	800b883a 	mov	r5,r16
 4024484:	8809883a 	mov	r4,r17
 4024488:	4024c380 	call	4024c38 <__smakebuf_r>
 402448c:	003fcd06 	br	40243c4 <_fseeko_r+0xfc>
 4024490:	8140038f 	ldh	r5,14(r16)
 4024494:	283fd316 	blt	r5,zero,40243e4 <_fseeko_r+0x11c>
 4024498:	d80d883a 	mov	r6,sp
 402449c:	8809883a 	mov	r4,r17
 40244a0:	40246c80 	call	40246c8 <_fstat_r>
 40244a4:	10006b1e 	bne	r2,zero,4024654 <_fseeko_r+0x38c>
 40244a8:	d8c00117 	ldw	r3,4(sp)
 40244ac:	01200014 	movui	r4,32768
 40244b0:	8080030b 	ldhu	r2,12(r16)
 40244b4:	18fc000c 	andi	r3,r3,61440
 40244b8:	193fca1e 	bne	r3,r4,40243e4 <_fseeko_r+0x11c>
 40244bc:	10810014 	ori	r2,r2,1024
 40244c0:	00c10004 	movi	r3,1024
 40244c4:	80c01315 	stw	r3,76(r16)
 40244c8:	8080030d 	sth	r2,12(r16)
 40244cc:	a000441e 	bne	r20,zero,40245e0 <_fseeko_r+0x318>
 40244d0:	982f883a 	mov	r23,r19
 40244d4:	b0004a1e 	bne	r22,zero,4024600 <_fseeko_r+0x338>
 40244d8:	8080030b 	ldhu	r2,12(r16)
 40244dc:	1084000c 	andi	r2,r2,4096
 40244e0:	10005426 	beq	r2,zero,4024634 <_fseeko_r+0x36c>
 40244e4:	80801417 	ldw	r2,80(r16)
 40244e8:	80c00117 	ldw	r3,4(r16)
 40244ec:	81400c17 	ldw	r5,48(r16)
 40244f0:	1809883a 	mov	r4,r3
 40244f4:	10e5c83a 	sub	r18,r2,r3
 40244f8:	28004726 	beq	r5,zero,4024618 <_fseeko_r+0x350>
 40244fc:	81000f17 	ldw	r4,60(r16)
 4024500:	9125c83a 	sub	r18,r18,r4
 4024504:	80800e17 	ldw	r2,56(r16)
 4024508:	81800417 	ldw	r6,16(r16)
 402450c:	90e5883a 	add	r18,r18,r3
 4024510:	1185c83a 	sub	r2,r2,r6
 4024514:	90a5c83a 	sub	r18,r18,r2
 4024518:	1105883a 	add	r2,r2,r4
 402451c:	bc800216 	blt	r23,r18,4024528 <_fseeko_r+0x260>
 4024520:	9087883a 	add	r3,r18,r2
 4024524:	b8c04d36 	bltu	r23,r3,402465c <_fseeko_r+0x394>
 4024528:	84801317 	ldw	r18,76(r16)
 402452c:	81400717 	ldw	r5,28(r16)
 4024530:	000f883a 	mov	r7,zero
 4024534:	04a5c83a 	sub	r18,zero,r18
 4024538:	95e4703a 	and	r18,r18,r23
 402453c:	900d883a 	mov	r6,r18
 4024540:	8809883a 	mov	r4,r17
 4024544:	a83ee83a 	callr	r21
 4024548:	10bfffe0 	cmpeqi	r2,r2,-1
 402454c:	103fa71e 	bne	r2,zero,40243ec <_fseeko_r+0x124>
 4024550:	80800417 	ldw	r2,16(r16)
 4024554:	81400c17 	ldw	r5,48(r16)
 4024558:	80000115 	stw	zero,4(r16)
 402455c:	80800015 	stw	r2,0(r16)
 4024560:	28000526 	beq	r5,zero,4024578 <_fseeko_r+0x2b0>
 4024564:	80801004 	addi	r2,r16,64
 4024568:	28800226 	beq	r5,r2,4024574 <_fseeko_r+0x2ac>
 402456c:	8809883a 	mov	r4,r17
 4024570:	4023fac0 	call	4023fac <_free_r>
 4024574:	80000c15 	stw	zero,48(r16)
 4024578:	8080030b 	ldhu	r2,12(r16)
 402457c:	bcadc83a 	sub	r22,r23,r18
 4024580:	10bff7cc 	andi	r2,r2,65503
 4024584:	8080030d 	sth	r2,12(r16)
 4024588:	bc800b26 	beq	r23,r18,40245b8 <_fseeko_r+0x2f0>
 402458c:	800b883a 	mov	r5,r16
 4024590:	8809883a 	mov	r4,r17
 4024594:	4025b780 	call	4025b78 <__srefill_r>
 4024598:	103f941e 	bne	r2,zero,40243ec <_fseeko_r+0x124>
 402459c:	80800117 	ldw	r2,4(r16)
 40245a0:	15bf9236 	bltu	r2,r22,40243ec <_fseeko_r+0x124>
 40245a4:	80c00017 	ldw	r3,0(r16)
 40245a8:	1585c83a 	sub	r2,r2,r22
 40245ac:	80800115 	stw	r2,4(r16)
 40245b0:	1dad883a 	add	r22,r3,r22
 40245b4:	85800015 	stw	r22,0(r16)
 40245b8:	80001705 	stb	zero,92(r16)
 40245bc:	80001745 	stb	zero,93(r16)
 40245c0:	80001785 	stb	zero,94(r16)
 40245c4:	800017c5 	stb	zero,95(r16)
 40245c8:	80001805 	stb	zero,96(r16)
 40245cc:	80001845 	stb	zero,97(r16)
 40245d0:	80001885 	stb	zero,98(r16)
 40245d4:	800018c5 	stb	zero,99(r16)
 40245d8:	0025883a 	mov	r18,zero
 40245dc:	003f5906 	br	4024344 <_fseeko_r+0x7c>
 40245e0:	8140038f 	ldh	r5,14(r16)
 40245e4:	d80d883a 	mov	r6,sp
 40245e8:	8809883a 	mov	r4,r17
 40245ec:	40246c80 	call	40246c8 <_fstat_r>
 40245f0:	103f7e1e 	bne	r2,zero,40243ec <_fseeko_r+0x124>
 40245f4:	ddc00417 	ldw	r23,16(sp)
 40245f8:	9def883a 	add	r23,r19,r23
 40245fc:	b03fb626 	beq	r22,zero,40244d8 <_fseeko_r+0x210>
 4024600:	81400c17 	ldw	r5,48(r16)
 4024604:	28000326 	beq	r5,zero,4024614 <_fseeko_r+0x34c>
 4024608:	80c00117 	ldw	r3,4(r16)
 402460c:	81000f17 	ldw	r4,60(r16)
 4024610:	003fbc06 	br	4024504 <_fseeko_r+0x23c>
 4024614:	81000117 	ldw	r4,4(r16)
 4024618:	80800017 	ldw	r2,0(r16)
 402461c:	81800417 	ldw	r6,16(r16)
 4024620:	000b883a 	mov	r5,zero
 4024624:	1185c83a 	sub	r2,r2,r6
 4024628:	90a5c83a 	sub	r18,r18,r2
 402462c:	2085883a 	add	r2,r4,r2
 4024630:	003fba06 	br	402451c <_fseeko_r+0x254>
 4024634:	81400717 	ldw	r5,28(r16)
 4024638:	01c00044 	movi	r7,1
 402463c:	000d883a 	mov	r6,zero
 4024640:	8809883a 	mov	r4,r17
 4024644:	a83ee83a 	callr	r21
 4024648:	10ffffe0 	cmpeqi	r3,r2,-1
 402464c:	183fa626 	beq	r3,zero,40244e8 <_fseeko_r+0x220>
 4024650:	003f6606 	br	40243ec <_fseeko_r+0x124>
 4024654:	8080030b 	ldhu	r2,12(r16)
 4024658:	003f6206 	br	40243e4 <_fseeko_r+0x11c>
 402465c:	bca5c83a 	sub	r18,r23,r18
 4024660:	348d883a 	add	r6,r6,r18
 4024664:	14a5c83a 	sub	r18,r2,r18
 4024668:	81800015 	stw	r6,0(r16)
 402466c:	84800115 	stw	r18,4(r16)
 4024670:	28000526 	beq	r5,zero,4024688 <_fseeko_r+0x3c0>
 4024674:	80801004 	addi	r2,r16,64
 4024678:	28800226 	beq	r5,r2,4024684 <_fseeko_r+0x3bc>
 402467c:	8809883a 	mov	r4,r17
 4024680:	4023fac0 	call	4023fac <_free_r>
 4024684:	80000c15 	stw	zero,48(r16)
 4024688:	80c0030b 	ldhu	r3,12(r16)
 402468c:	80001705 	stb	zero,92(r16)
 4024690:	18fff7cc 	andi	r3,r3,65503
 4024694:	80c0030d 	sth	r3,12(r16)
 4024698:	003fc806 	br	40245bc <_fseeko_r+0x2f4>
 402469c:	00800744 	movi	r2,29
 40246a0:	88800015 	stw	r2,0(r17)
 40246a4:	04bfffc4 	movi	r18,-1
 40246a8:	003f2606 	br	4024344 <_fseeko_r+0x7c>

040246ac <fseeko>:
 40246ac:	00c00034 	movhi	r3,0
 40246b0:	2005883a 	mov	r2,r4
 40246b4:	19094e17 	ldw	r4,9528(r3)
 40246b8:	300f883a 	mov	r7,r6
 40246bc:	280d883a 	mov	r6,r5
 40246c0:	100b883a 	mov	r5,r2
 40246c4:	40242c81 	jmpi	40242c8 <_fseeko_r>

040246c8 <_fstat_r>:
 40246c8:	2807883a 	mov	r3,r5
 40246cc:	defffe04 	addi	sp,sp,-8
 40246d0:	dc000015 	stw	r16,0(sp)
 40246d4:	00800034 	movhi	r2,0
 40246d8:	300b883a 	mov	r5,r6
 40246dc:	2021883a 	mov	r16,r4
 40246e0:	1809883a 	mov	r4,r3
 40246e4:	dfc00115 	stw	ra,4(sp)
 40246e8:	10095d15 	stw	zero,9588(r2)
 40246ec:	40310f00 	call	40310f0 <fstat>
 40246f0:	10ffffd8 	cmpnei	r3,r2,-1
 40246f4:	18000426 	beq	r3,zero,4024708 <_fstat_r+0x40>
 40246f8:	dfc00117 	ldw	ra,4(sp)
 40246fc:	dc000017 	ldw	r16,0(sp)
 4024700:	dec00204 	addi	sp,sp,8
 4024704:	f800283a 	ret
 4024708:	00c00034 	movhi	r3,0
 402470c:	18c95d17 	ldw	r3,9588(r3)
 4024710:	183ff926 	beq	r3,zero,40246f8 <_fstat_r+0x30>
 4024714:	80c00015 	stw	r3,0(r16)
 4024718:	dfc00117 	ldw	ra,4(sp)
 402471c:	dc000017 	ldw	r16,0(sp)
 4024720:	dec00204 	addi	sp,sp,8
 4024724:	f800283a 	ret

04024728 <_ftello_r>:
 4024728:	defffd04 	addi	sp,sp,-12
 402472c:	dc400115 	stw	r17,4(sp)
 4024730:	dc000015 	stw	r16,0(sp)
 4024734:	dfc00215 	stw	ra,8(sp)
 4024738:	2023883a 	mov	r17,r4
 402473c:	2821883a 	mov	r16,r5
 4024740:	20000226 	beq	r4,zero,402474c <_ftello_r+0x24>
 4024744:	20800e17 	ldw	r2,56(r4)
 4024748:	10002826 	beq	r2,zero,40247ec <_ftello_r+0xc4>
 402474c:	82000a17 	ldw	r8,40(r16)
 4024750:	40003826 	beq	r8,zero,4024834 <_ftello_r+0x10c>
 4024754:	80c0030b 	ldhu	r3,12(r16)
 4024758:	1880030c 	andi	r2,r3,12
 402475c:	10800218 	cmpnei	r2,r2,8
 4024760:	10002426 	beq	r2,zero,40247f4 <_ftello_r+0xcc>
 4024764:	1884000c 	andi	r2,r3,4096
 4024768:	1000151e 	bne	r2,zero,40247c0 <_ftello_r+0x98>
 402476c:	81400717 	ldw	r5,28(r16)
 4024770:	01c00044 	movi	r7,1
 4024774:	000d883a 	mov	r6,zero
 4024778:	8809883a 	mov	r4,r17
 402477c:	403ee83a 	callr	r8
 4024780:	10ffffe0 	cmpeqi	r3,r2,-1
 4024784:	1800291e 	bne	r3,zero,402482c <_ftello_r+0x104>
 4024788:	80c0030b 	ldhu	r3,12(r16)
 402478c:	1900010c 	andi	r4,r3,4
 4024790:	20000e26 	beq	r4,zero,40247cc <_ftello_r+0xa4>
 4024794:	81000117 	ldw	r4,4(r16)
 4024798:	80c00c17 	ldw	r3,48(r16)
 402479c:	1105c83a 	sub	r2,r2,r4
 40247a0:	18000226 	beq	r3,zero,40247ac <_ftello_r+0x84>
 40247a4:	80c00f17 	ldw	r3,60(r16)
 40247a8:	10c5c83a 	sub	r2,r2,r3
 40247ac:	dfc00217 	ldw	ra,8(sp)
 40247b0:	dc400117 	ldw	r17,4(sp)
 40247b4:	dc000017 	ldw	r16,0(sp)
 40247b8:	dec00304 	addi	sp,sp,12
 40247bc:	f800283a 	ret
 40247c0:	1900010c 	andi	r4,r3,4
 40247c4:	80801417 	ldw	r2,80(r16)
 40247c8:	203ff21e 	bne	r4,zero,4024794 <_ftello_r+0x6c>
 40247cc:	18c0020c 	andi	r3,r3,8
 40247d0:	183ff626 	beq	r3,zero,40247ac <_ftello_r+0x84>
 40247d4:	80c00017 	ldw	r3,0(r16)
 40247d8:	183ff426 	beq	r3,zero,40247ac <_ftello_r+0x84>
 40247dc:	81000417 	ldw	r4,16(r16)
 40247e0:	1907c83a 	sub	r3,r3,r4
 40247e4:	10c5883a 	add	r2,r2,r3
 40247e8:	003ff006 	br	40247ac <_ftello_r+0x84>
 40247ec:	4023c500 	call	4023c50 <__sinit>
 40247f0:	003fd606 	br	402474c <_ftello_r+0x24>
 40247f4:	80800017 	ldw	r2,0(r16)
 40247f8:	103fda26 	beq	r2,zero,4024764 <_ftello_r+0x3c>
 40247fc:	81000417 	ldw	r4,16(r16)
 4024800:	1105c83a 	sub	r2,r2,r4
 4024804:	00bfd70e 	bge	zero,r2,4024764 <_ftello_r+0x3c>
 4024808:	1880400c 	andi	r2,r3,256
 402480c:	103fd526 	beq	r2,zero,4024764 <_ftello_r+0x3c>
 4024810:	81400717 	ldw	r5,28(r16)
 4024814:	01c00084 	movi	r7,2
 4024818:	000d883a 	mov	r6,zero
 402481c:	8809883a 	mov	r4,r17
 4024820:	403ee83a 	callr	r8
 4024824:	10ffffd8 	cmpnei	r3,r2,-1
 4024828:	183fd71e 	bne	r3,zero,4024788 <_ftello_r+0x60>
 402482c:	00bfffc4 	movi	r2,-1
 4024830:	003fde06 	br	40247ac <_ftello_r+0x84>
 4024834:	00800744 	movi	r2,29
 4024838:	88800015 	stw	r2,0(r17)
 402483c:	00bfffc4 	movi	r2,-1
 4024840:	003fda06 	br	40247ac <_ftello_r+0x84>

04024844 <ftello>:
 4024844:	00800034 	movhi	r2,0
 4024848:	200b883a 	mov	r5,r4
 402484c:	11094e17 	ldw	r4,9528(r2)
 4024850:	40247281 	jmpi	4024728 <_ftello_r>

04024854 <_fwalk>:
 4024854:	defffa04 	addi	sp,sp,-24
 4024858:	dd000415 	stw	r20,16(sp)
 402485c:	dcc00315 	stw	r19,12(sp)
 4024860:	dc800215 	stw	r18,8(sp)
 4024864:	dfc00515 	stw	ra,20(sp)
 4024868:	dc400115 	stw	r17,4(sp)
 402486c:	dc000015 	stw	r16,0(sp)
 4024870:	2827883a 	mov	r19,r5
 4024874:	2480b804 	addi	r18,r4,736
 4024878:	0029883a 	mov	r20,zero
 402487c:	94400117 	ldw	r17,4(r18)
 4024880:	94000217 	ldw	r16,8(r18)
 4024884:	8c7fffc4 	addi	r17,r17,-1
 4024888:	88000d16 	blt	r17,zero,40248c0 <_fwalk+0x6c>
 402488c:	8080030b 	ldhu	r2,12(r16)
 4024890:	8c7fffc4 	addi	r17,r17,-1
 4024894:	108000b0 	cmpltui	r2,r2,2
 4024898:	1000061e 	bne	r2,zero,40248b4 <_fwalk+0x60>
 402489c:	8080038f 	ldh	r2,14(r16)
 40248a0:	8009883a 	mov	r4,r16
 40248a4:	10bfffe0 	cmpeqi	r2,r2,-1
 40248a8:	1000021e 	bne	r2,zero,40248b4 <_fwalk+0x60>
 40248ac:	983ee83a 	callr	r19
 40248b0:	a0a8b03a 	or	r20,r20,r2
 40248b4:	88bfffd8 	cmpnei	r2,r17,-1
 40248b8:	84001a04 	addi	r16,r16,104
 40248bc:	103ff31e 	bne	r2,zero,402488c <_fwalk+0x38>
 40248c0:	94800017 	ldw	r18,0(r18)
 40248c4:	903fed1e 	bne	r18,zero,402487c <_fwalk+0x28>
 40248c8:	a005883a 	mov	r2,r20
 40248cc:	dfc00517 	ldw	ra,20(sp)
 40248d0:	dd000417 	ldw	r20,16(sp)
 40248d4:	dcc00317 	ldw	r19,12(sp)
 40248d8:	dc800217 	ldw	r18,8(sp)
 40248dc:	dc400117 	ldw	r17,4(sp)
 40248e0:	dc000017 	ldw	r16,0(sp)
 40248e4:	dec00604 	addi	sp,sp,24
 40248e8:	f800283a 	ret

040248ec <_fwalk_reent>:
 40248ec:	defff904 	addi	sp,sp,-28
 40248f0:	dd400515 	stw	r21,20(sp)
 40248f4:	dd000415 	stw	r20,16(sp)
 40248f8:	dcc00315 	stw	r19,12(sp)
 40248fc:	dc800215 	stw	r18,8(sp)
 4024900:	dfc00615 	stw	ra,24(sp)
 4024904:	dc400115 	stw	r17,4(sp)
 4024908:	dc000015 	stw	r16,0(sp)
 402490c:	202b883a 	mov	r21,r4
 4024910:	2827883a 	mov	r19,r5
 4024914:	2480b804 	addi	r18,r4,736
 4024918:	0029883a 	mov	r20,zero
 402491c:	94400117 	ldw	r17,4(r18)
 4024920:	94000217 	ldw	r16,8(r18)
 4024924:	8c7fffc4 	addi	r17,r17,-1
 4024928:	88000e16 	blt	r17,zero,4024964 <_fwalk_reent+0x78>
 402492c:	8080030b 	ldhu	r2,12(r16)
 4024930:	8c7fffc4 	addi	r17,r17,-1
 4024934:	108000b0 	cmpltui	r2,r2,2
 4024938:	1000071e 	bne	r2,zero,4024958 <_fwalk_reent+0x6c>
 402493c:	8080038f 	ldh	r2,14(r16)
 4024940:	800b883a 	mov	r5,r16
 4024944:	a809883a 	mov	r4,r21
 4024948:	10bfffe0 	cmpeqi	r2,r2,-1
 402494c:	1000021e 	bne	r2,zero,4024958 <_fwalk_reent+0x6c>
 4024950:	983ee83a 	callr	r19
 4024954:	a0a8b03a 	or	r20,r20,r2
 4024958:	88bfffd8 	cmpnei	r2,r17,-1
 402495c:	84001a04 	addi	r16,r16,104
 4024960:	103ff21e 	bne	r2,zero,402492c <_fwalk_reent+0x40>
 4024964:	94800017 	ldw	r18,0(r18)
 4024968:	903fec1e 	bne	r18,zero,402491c <_fwalk_reent+0x30>
 402496c:	a005883a 	mov	r2,r20
 4024970:	dfc00617 	ldw	ra,24(sp)
 4024974:	dd400517 	ldw	r21,20(sp)
 4024978:	dd000417 	ldw	r20,16(sp)
 402497c:	dcc00317 	ldw	r19,12(sp)
 4024980:	dc800217 	ldw	r18,8(sp)
 4024984:	dc400117 	ldw	r17,4(sp)
 4024988:	dc000017 	ldw	r16,0(sp)
 402498c:	dec00704 	addi	sp,sp,28
 4024990:	f800283a 	ret

04024994 <_fwrite_r>:
 4024994:	defff604 	addi	sp,sp,-40
 4024998:	dcc00815 	stw	r19,32(sp)
 402499c:	39a7383a 	mul	r19,r7,r6
 40249a0:	00800044 	movi	r2,1
 40249a4:	dc800715 	stw	r18,28(sp)
 40249a8:	dc400615 	stw	r17,24(sp)
 40249ac:	dc000515 	stw	r16,20(sp)
 40249b0:	d9400015 	stw	r5,0(sp)
 40249b4:	dfc00915 	stw	ra,36(sp)
 40249b8:	dcc00115 	stw	r19,4(sp)
 40249bc:	dcc00415 	stw	r19,16(sp)
 40249c0:	dec00215 	stw	sp,8(sp)
 40249c4:	d8800315 	stw	r2,12(sp)
 40249c8:	d9400a17 	ldw	r5,40(sp)
 40249cc:	3025883a 	mov	r18,r6
 40249d0:	3821883a 	mov	r16,r7
 40249d4:	2023883a 	mov	r17,r4
 40249d8:	20000226 	beq	r4,zero,40249e4 <_fwrite_r+0x50>
 40249dc:	20800e17 	ldw	r2,56(r4)
 40249e0:	10001826 	beq	r2,zero,4024a44 <_fwrite_r+0xb0>
 40249e4:	2880030b 	ldhu	r2,12(r5)
 40249e8:	10c8000c 	andi	r3,r2,8192
 40249ec:	1800061e 	bne	r3,zero,4024a08 <_fwrite_r+0x74>
 40249f0:	28c01917 	ldw	r3,100(r5)
 40249f4:	0137ffc4 	movi	r4,-8193
 40249f8:	10880014 	ori	r2,r2,8192
 40249fc:	1906703a 	and	r3,r3,r4
 4024a00:	2880030d 	sth	r2,12(r5)
 4024a04:	28c01915 	stw	r3,100(r5)
 4024a08:	d9800204 	addi	r6,sp,8
 4024a0c:	8809883a 	mov	r4,r17
 4024a10:	402a0680 	call	402a068 <__sfvwrite_r>
 4024a14:	10000e26 	beq	r2,zero,4024a50 <_fwrite_r+0xbc>
 4024a18:	d9000417 	ldw	r4,16(sp)
 4024a1c:	900b883a 	mov	r5,r18
 4024a20:	9909c83a 	sub	r4,r19,r4
 4024a24:	40225940 	call	4022594 <__udivsi3>
 4024a28:	dfc00917 	ldw	ra,36(sp)
 4024a2c:	dcc00817 	ldw	r19,32(sp)
 4024a30:	dc800717 	ldw	r18,28(sp)
 4024a34:	dc400617 	ldw	r17,24(sp)
 4024a38:	dc000517 	ldw	r16,20(sp)
 4024a3c:	dec00a04 	addi	sp,sp,40
 4024a40:	f800283a 	ret
 4024a44:	4023c500 	call	4023c50 <__sinit>
 4024a48:	d9400a17 	ldw	r5,40(sp)
 4024a4c:	003fe506 	br	40249e4 <_fwrite_r+0x50>
 4024a50:	8005883a 	mov	r2,r16
 4024a54:	003ff406 	br	4024a28 <_fwrite_r+0x94>

04024a58 <fwrite>:
 4024a58:	defff504 	addi	sp,sp,-44
 4024a5c:	00800034 	movhi	r2,0
 4024a60:	dcc00915 	stw	r19,36(sp)
 4024a64:	29a7383a 	mul	r19,r5,r6
 4024a68:	dc800815 	stw	r18,32(sp)
 4024a6c:	14894e17 	ldw	r18,9528(r2)
 4024a70:	d8800104 	addi	r2,sp,4
 4024a74:	d8800315 	stw	r2,12(sp)
 4024a78:	00800044 	movi	r2,1
 4024a7c:	dc400715 	stw	r17,28(sp)
 4024a80:	dc000615 	stw	r16,24(sp)
 4024a84:	dfc00a15 	stw	ra,40(sp)
 4024a88:	d9000115 	stw	r4,4(sp)
 4024a8c:	dcc00215 	stw	r19,8(sp)
 4024a90:	dcc00515 	stw	r19,20(sp)
 4024a94:	d8800415 	stw	r2,16(sp)
 4024a98:	2823883a 	mov	r17,r5
 4024a9c:	3021883a 	mov	r16,r6
 4024aa0:	380b883a 	mov	r5,r7
 4024aa4:	90000226 	beq	r18,zero,4024ab0 <fwrite+0x58>
 4024aa8:	90800e17 	ldw	r2,56(r18)
 4024aac:	10001826 	beq	r2,zero,4024b10 <fwrite+0xb8>
 4024ab0:	2880030b 	ldhu	r2,12(r5)
 4024ab4:	10c8000c 	andi	r3,r2,8192
 4024ab8:	1800061e 	bne	r3,zero,4024ad4 <fwrite+0x7c>
 4024abc:	28c01917 	ldw	r3,100(r5)
 4024ac0:	0137ffc4 	movi	r4,-8193
 4024ac4:	10880014 	ori	r2,r2,8192
 4024ac8:	1906703a 	and	r3,r3,r4
 4024acc:	2880030d 	sth	r2,12(r5)
 4024ad0:	28c01915 	stw	r3,100(r5)
 4024ad4:	d9800304 	addi	r6,sp,12
 4024ad8:	9009883a 	mov	r4,r18
 4024adc:	402a0680 	call	402a068 <__sfvwrite_r>
 4024ae0:	10001026 	beq	r2,zero,4024b24 <fwrite+0xcc>
 4024ae4:	d9000517 	ldw	r4,20(sp)
 4024ae8:	880b883a 	mov	r5,r17
 4024aec:	9909c83a 	sub	r4,r19,r4
 4024af0:	40225940 	call	4022594 <__udivsi3>
 4024af4:	dfc00a17 	ldw	ra,40(sp)
 4024af8:	dcc00917 	ldw	r19,36(sp)
 4024afc:	dc800817 	ldw	r18,32(sp)
 4024b00:	dc400717 	ldw	r17,28(sp)
 4024b04:	dc000617 	ldw	r16,24(sp)
 4024b08:	dec00b04 	addi	sp,sp,44
 4024b0c:	f800283a 	ret
 4024b10:	9009883a 	mov	r4,r18
 4024b14:	d9c00015 	stw	r7,0(sp)
 4024b18:	4023c500 	call	4023c50 <__sinit>
 4024b1c:	d9400017 	ldw	r5,0(sp)
 4024b20:	003fe306 	br	4024ab0 <fwrite+0x58>
 4024b24:	8005883a 	mov	r2,r16
 4024b28:	003ff206 	br	4024af4 <fwrite+0x9c>

04024b2c <_getc_r>:
 4024b2c:	defffd04 	addi	sp,sp,-12
 4024b30:	dc000115 	stw	r16,4(sp)
 4024b34:	dfc00215 	stw	ra,8(sp)
 4024b38:	2021883a 	mov	r16,r4
 4024b3c:	20000226 	beq	r4,zero,4024b48 <_getc_r+0x1c>
 4024b40:	20800e17 	ldw	r2,56(r4)
 4024b44:	10000c26 	beq	r2,zero,4024b78 <_getc_r+0x4c>
 4024b48:	28800117 	ldw	r2,4(r5)
 4024b4c:	10bfffc4 	addi	r2,r2,-1
 4024b50:	28800115 	stw	r2,4(r5)
 4024b54:	10000f16 	blt	r2,zero,4024b94 <_getc_r+0x68>
 4024b58:	28800017 	ldw	r2,0(r5)
 4024b5c:	10c00044 	addi	r3,r2,1
 4024b60:	28c00015 	stw	r3,0(r5)
 4024b64:	10800003 	ldbu	r2,0(r2)
 4024b68:	dfc00217 	ldw	ra,8(sp)
 4024b6c:	dc000117 	ldw	r16,4(sp)
 4024b70:	dec00304 	addi	sp,sp,12
 4024b74:	f800283a 	ret
 4024b78:	d9400015 	stw	r5,0(sp)
 4024b7c:	4023c500 	call	4023c50 <__sinit>
 4024b80:	d9400017 	ldw	r5,0(sp)
 4024b84:	28800117 	ldw	r2,4(r5)
 4024b88:	10bfffc4 	addi	r2,r2,-1
 4024b8c:	28800115 	stw	r2,4(r5)
 4024b90:	103ff10e 	bge	r2,zero,4024b58 <_getc_r+0x2c>
 4024b94:	8009883a 	mov	r4,r16
 4024b98:	dfc00217 	ldw	ra,8(sp)
 4024b9c:	dc000117 	ldw	r16,4(sp)
 4024ba0:	dec00304 	addi	sp,sp,12
 4024ba4:	4025d441 	jmpi	4025d44 <__srget_r>

04024ba8 <getc>:
 4024ba8:	defffd04 	addi	sp,sp,-12
 4024bac:	00800034 	movhi	r2,0
 4024bb0:	dc400115 	stw	r17,4(sp)
 4024bb4:	14494e17 	ldw	r17,9528(r2)
 4024bb8:	dc000015 	stw	r16,0(sp)
 4024bbc:	dfc00215 	stw	ra,8(sp)
 4024bc0:	2021883a 	mov	r16,r4
 4024bc4:	88000226 	beq	r17,zero,4024bd0 <getc+0x28>
 4024bc8:	88800e17 	ldw	r2,56(r17)
 4024bcc:	10000d26 	beq	r2,zero,4024c04 <getc+0x5c>
 4024bd0:	80800117 	ldw	r2,4(r16)
 4024bd4:	10bfffc4 	addi	r2,r2,-1
 4024bd8:	80800115 	stw	r2,4(r16)
 4024bdc:	10000f16 	blt	r2,zero,4024c1c <getc+0x74>
 4024be0:	80800017 	ldw	r2,0(r16)
 4024be4:	10c00044 	addi	r3,r2,1
 4024be8:	80c00015 	stw	r3,0(r16)
 4024bec:	10800003 	ldbu	r2,0(r2)
 4024bf0:	dfc00217 	ldw	ra,8(sp)
 4024bf4:	dc400117 	ldw	r17,4(sp)
 4024bf8:	dc000017 	ldw	r16,0(sp)
 4024bfc:	dec00304 	addi	sp,sp,12
 4024c00:	f800283a 	ret
 4024c04:	8809883a 	mov	r4,r17
 4024c08:	4023c500 	call	4023c50 <__sinit>
 4024c0c:	80800117 	ldw	r2,4(r16)
 4024c10:	10bfffc4 	addi	r2,r2,-1
 4024c14:	80800115 	stw	r2,4(r16)
 4024c18:	103ff10e 	bge	r2,zero,4024be0 <getc+0x38>
 4024c1c:	800b883a 	mov	r5,r16
 4024c20:	8809883a 	mov	r4,r17
 4024c24:	dfc00217 	ldw	ra,8(sp)
 4024c28:	dc400117 	ldw	r17,4(sp)
 4024c2c:	dc000017 	ldw	r16,0(sp)
 4024c30:	dec00304 	addi	sp,sp,12
 4024c34:	4025d441 	jmpi	4025d44 <__srget_r>

04024c38 <__smakebuf_r>:
 4024c38:	2880030b 	ldhu	r2,12(r5)
 4024c3c:	deffe804 	addi	sp,sp,-96
 4024c40:	dc001215 	stw	r16,72(sp)
 4024c44:	dfc01715 	stw	ra,92(sp)
 4024c48:	dd001615 	stw	r20,88(sp)
 4024c4c:	dcc01515 	stw	r19,84(sp)
 4024c50:	dc801415 	stw	r18,80(sp)
 4024c54:	dc401315 	stw	r17,76(sp)
 4024c58:	10c0008c 	andi	r3,r2,2
 4024c5c:	2821883a 	mov	r16,r5
 4024c60:	18000d26 	beq	r3,zero,4024c98 <__smakebuf_r+0x60>
 4024c64:	288010c4 	addi	r2,r5,67
 4024c68:	28800015 	stw	r2,0(r5)
 4024c6c:	28800415 	stw	r2,16(r5)
 4024c70:	00800044 	movi	r2,1
 4024c74:	28800515 	stw	r2,20(r5)
 4024c78:	dfc01717 	ldw	ra,92(sp)
 4024c7c:	dd001617 	ldw	r20,88(sp)
 4024c80:	dcc01517 	ldw	r19,84(sp)
 4024c84:	dc801417 	ldw	r18,80(sp)
 4024c88:	dc401317 	ldw	r17,76(sp)
 4024c8c:	dc001217 	ldw	r16,72(sp)
 4024c90:	dec01804 	addi	sp,sp,96
 4024c94:	f800283a 	ret
 4024c98:	2940038f 	ldh	r5,14(r5)
 4024c9c:	2023883a 	mov	r17,r4
 4024ca0:	28002816 	blt	r5,zero,4024d44 <__smakebuf_r+0x10c>
 4024ca4:	d80d883a 	mov	r6,sp
 4024ca8:	40246c80 	call	40246c8 <_fstat_r>
 4024cac:	10002416 	blt	r2,zero,4024d40 <__smakebuf_r+0x108>
 4024cb0:	d8800117 	ldw	r2,4(sp)
 4024cb4:	10bc000c 	andi	r2,r2,61440
 4024cb8:	10880018 	cmpnei	r2,r2,8192
 4024cbc:	1000461e 	bne	r2,zero,4024dd8 <__smakebuf_r+0x1a0>
 4024cc0:	8140038f 	ldh	r5,14(r16)
 4024cc4:	8809883a 	mov	r4,r17
 4024cc8:	402a5200 	call	402a520 <_isatty_r>
 4024ccc:	10003e26 	beq	r2,zero,4024dc8 <__smakebuf_r+0x190>
 4024cd0:	8080030b 	ldhu	r2,12(r16)
 4024cd4:	80c010c4 	addi	r3,r16,67
 4024cd8:	80c00015 	stw	r3,0(r16)
 4024cdc:	10800054 	ori	r2,r2,1
 4024ce0:	8080030d 	sth	r2,12(r16)
 4024ce4:	00800044 	movi	r2,1
 4024ce8:	80c00415 	stw	r3,16(r16)
 4024cec:	80800515 	stw	r2,20(r16)
 4024cf0:	04c00044 	movi	r19,1
 4024cf4:	05010004 	movi	r20,1024
 4024cf8:	04820004 	movi	r18,2048
 4024cfc:	a00b883a 	mov	r5,r20
 4024d00:	8809883a 	mov	r4,r17
 4024d04:	4024ea00 	call	4024ea0 <_malloc_r>
 4024d08:	10001726 	beq	r2,zero,4024d68 <__smakebuf_r+0x130>
 4024d0c:	80c0030b 	ldhu	r3,12(r16)
 4024d10:	010100b4 	movhi	r4,1026
 4024d14:	210e4104 	addi	r4,r4,14596
 4024d18:	89000f15 	stw	r4,60(r17)
 4024d1c:	18c02014 	ori	r3,r3,128
 4024d20:	80c0030d 	sth	r3,12(r16)
 4024d24:	80800015 	stw	r2,0(r16)
 4024d28:	80800415 	stw	r2,16(r16)
 4024d2c:	85000515 	stw	r20,20(r16)
 4024d30:	98001d1e 	bne	r19,zero,4024da8 <__smakebuf_r+0x170>
 4024d34:	90c6b03a 	or	r3,r18,r3
 4024d38:	80c0030d 	sth	r3,12(r16)
 4024d3c:	003fce06 	br	4024c78 <__smakebuf_r+0x40>
 4024d40:	8080030b 	ldhu	r2,12(r16)
 4024d44:	1080200c 	andi	r2,r2,128
 4024d48:	0027883a 	mov	r19,zero
 4024d4c:	10001326 	beq	r2,zero,4024d9c <__smakebuf_r+0x164>
 4024d50:	05001004 	movi	r20,64
 4024d54:	a00b883a 	mov	r5,r20
 4024d58:	8809883a 	mov	r4,r17
 4024d5c:	0025883a 	mov	r18,zero
 4024d60:	4024ea00 	call	4024ea0 <_malloc_r>
 4024d64:	103fe91e 	bne	r2,zero,4024d0c <__smakebuf_r+0xd4>
 4024d68:	8080030b 	ldhu	r2,12(r16)
 4024d6c:	10c0800c 	andi	r3,r2,512
 4024d70:	183fc11e 	bne	r3,zero,4024c78 <__smakebuf_r+0x40>
 4024d74:	00ffff04 	movi	r3,-4
 4024d78:	10c4703a 	and	r2,r2,r3
 4024d7c:	10800094 	ori	r2,r2,2
 4024d80:	80c010c4 	addi	r3,r16,67
 4024d84:	8080030d 	sth	r2,12(r16)
 4024d88:	00800044 	movi	r2,1
 4024d8c:	80c00015 	stw	r3,0(r16)
 4024d90:	80c00415 	stw	r3,16(r16)
 4024d94:	80800515 	stw	r2,20(r16)
 4024d98:	003fb706 	br	4024c78 <__smakebuf_r+0x40>
 4024d9c:	05010004 	movi	r20,1024
 4024da0:	0025883a 	mov	r18,zero
 4024da4:	003fd506 	br	4024cfc <__smakebuf_r+0xc4>
 4024da8:	8140038f 	ldh	r5,14(r16)
 4024dac:	8809883a 	mov	r4,r17
 4024db0:	402a5200 	call	402a520 <_isatty_r>
 4024db4:	80c0030b 	ldhu	r3,12(r16)
 4024db8:	103fde26 	beq	r2,zero,4024d34 <__smakebuf_r+0xfc>
 4024dbc:	18ffff0c 	andi	r3,r3,65532
 4024dc0:	18c00054 	ori	r3,r3,1
 4024dc4:	003fdb06 	br	4024d34 <__smakebuf_r+0xfc>
 4024dc8:	04c00044 	movi	r19,1
 4024dcc:	05010004 	movi	r20,1024
 4024dd0:	04820004 	movi	r18,2048
 4024dd4:	003fc906 	br	4024cfc <__smakebuf_r+0xc4>
 4024dd8:	0027883a 	mov	r19,zero
 4024ddc:	05010004 	movi	r20,1024
 4024de0:	04820004 	movi	r18,2048
 4024de4:	003fc506 	br	4024cfc <__smakebuf_r+0xc4>

04024de8 <__swhatbuf_r>:
 4024de8:	deffea04 	addi	sp,sp,-88
 4024dec:	dc001215 	stw	r16,72(sp)
 4024df0:	2821883a 	mov	r16,r5
 4024df4:	2940038f 	ldh	r5,14(r5)
 4024df8:	dc801415 	stw	r18,80(sp)
 4024dfc:	dc401315 	stw	r17,76(sp)
 4024e00:	dfc01515 	stw	ra,84(sp)
 4024e04:	3023883a 	mov	r17,r6
 4024e08:	3825883a 	mov	r18,r7
 4024e0c:	28001016 	blt	r5,zero,4024e50 <__swhatbuf_r+0x68>
 4024e10:	d80d883a 	mov	r6,sp
 4024e14:	40246c80 	call	40246c8 <_fstat_r>
 4024e18:	10000d16 	blt	r2,zero,4024e50 <__swhatbuf_r+0x68>
 4024e1c:	d8c00117 	ldw	r3,4(sp)
 4024e20:	00820004 	movi	r2,2048
 4024e24:	18fc000c 	andi	r3,r3,61440
 4024e28:	18c80020 	cmpeqi	r3,r3,8192
 4024e2c:	90c00015 	stw	r3,0(r18)
 4024e30:	00c10004 	movi	r3,1024
 4024e34:	88c00015 	stw	r3,0(r17)
 4024e38:	dfc01517 	ldw	ra,84(sp)
 4024e3c:	dc801417 	ldw	r18,80(sp)
 4024e40:	dc401317 	ldw	r17,76(sp)
 4024e44:	dc001217 	ldw	r16,72(sp)
 4024e48:	dec01604 	addi	sp,sp,88
 4024e4c:	f800283a 	ret
 4024e50:	8080030b 	ldhu	r2,12(r16)
 4024e54:	90000015 	stw	zero,0(r18)
 4024e58:	1080200c 	andi	r2,r2,128
 4024e5c:	10000426 	beq	r2,zero,4024e70 <__swhatbuf_r+0x88>
 4024e60:	00801004 	movi	r2,64
 4024e64:	88800015 	stw	r2,0(r17)
 4024e68:	0005883a 	mov	r2,zero
 4024e6c:	003ff206 	br	4024e38 <__swhatbuf_r+0x50>
 4024e70:	00810004 	movi	r2,1024
 4024e74:	88800015 	stw	r2,0(r17)
 4024e78:	0005883a 	mov	r2,zero
 4024e7c:	003fee06 	br	4024e38 <__swhatbuf_r+0x50>

04024e80 <malloc>:
 4024e80:	00800034 	movhi	r2,0
 4024e84:	200b883a 	mov	r5,r4
 4024e88:	11094e17 	ldw	r4,9528(r2)
 4024e8c:	4024ea01 	jmpi	4024ea0 <_malloc_r>

04024e90 <free>:
 4024e90:	00800034 	movhi	r2,0
 4024e94:	200b883a 	mov	r5,r4
 4024e98:	11094e17 	ldw	r4,9528(r2)
 4024e9c:	4023fac1 	jmpi	4023fac <_free_r>

04024ea0 <_malloc_r>:
 4024ea0:	defff604 	addi	sp,sp,-40
 4024ea4:	dc400115 	stw	r17,4(sp)
 4024ea8:	2c4002c4 	addi	r17,r5,11
 4024eac:	dc800215 	stw	r18,8(sp)
 4024eb0:	dfc00915 	stw	ra,36(sp)
 4024eb4:	df000815 	stw	fp,32(sp)
 4024eb8:	ddc00715 	stw	r23,28(sp)
 4024ebc:	dd800615 	stw	r22,24(sp)
 4024ec0:	dd400515 	stw	r21,20(sp)
 4024ec4:	dd000415 	stw	r20,16(sp)
 4024ec8:	dcc00315 	stw	r19,12(sp)
 4024ecc:	dc000015 	stw	r16,0(sp)
 4024ed0:	888005e8 	cmpgeui	r2,r17,23
 4024ed4:	2025883a 	mov	r18,r4
 4024ed8:	10001b1e 	bne	r2,zero,4024f48 <_malloc_r+0xa8>
 4024edc:	29400468 	cmpgeui	r5,r5,17
 4024ee0:	2800821e 	bne	r5,zero,40250ec <_malloc_r+0x24c>
 4024ee4:	40318000 	call	4031800 <__malloc_lock>
 4024ee8:	04400404 	movi	r17,16
 4024eec:	00800604 	movi	r2,24
 4024ef0:	01c00084 	movi	r7,2
 4024ef4:	04c00034 	movhi	r19,0
 4024ef8:	9cc36204 	addi	r19,r19,3464
 4024efc:	9885883a 	add	r2,r19,r2
 4024f00:	14000117 	ldw	r16,4(r2)
 4024f04:	10fffe04 	addi	r3,r2,-8
 4024f08:	80c08b26 	beq	r16,r3,4025138 <_malloc_r+0x298>
 4024f0c:	80800117 	ldw	r2,4(r16)
 4024f10:	81000317 	ldw	r4,12(r16)
 4024f14:	00ffff04 	movi	r3,-4
 4024f18:	10c4703a 	and	r2,r2,r3
 4024f1c:	81400217 	ldw	r5,8(r16)
 4024f20:	8085883a 	add	r2,r16,r2
 4024f24:	10c00117 	ldw	r3,4(r2)
 4024f28:	29000315 	stw	r4,12(r5)
 4024f2c:	21400215 	stw	r5,8(r4)
 4024f30:	18c00054 	ori	r3,r3,1
 4024f34:	10c00115 	stw	r3,4(r2)
 4024f38:	9009883a 	mov	r4,r18
 4024f3c:	40318240 	call	4031824 <__malloc_unlock>
 4024f40:	80800204 	addi	r2,r16,8
 4024f44:	00006c06 	br	40250f8 <_malloc_r+0x258>
 4024f48:	00bffe04 	movi	r2,-8
 4024f4c:	88a2703a 	and	r17,r17,r2
 4024f50:	88006616 	blt	r17,zero,40250ec <_malloc_r+0x24c>
 4024f54:	89406536 	bltu	r17,r5,40250ec <_malloc_r+0x24c>
 4024f58:	40318000 	call	4031800 <__malloc_lock>
 4024f5c:	88807e28 	cmpgeui	r2,r17,504
 4024f60:	10012226 	beq	r2,zero,40253ec <_malloc_r+0x54c>
 4024f64:	8804d27a 	srli	r2,r17,9
 4024f68:	10006f26 	beq	r2,zero,4025128 <_malloc_r+0x288>
 4024f6c:	10c00168 	cmpgeui	r3,r2,5
 4024f70:	1800fe1e 	bne	r3,zero,402536c <_malloc_r+0x4cc>
 4024f74:	8804d1ba 	srli	r2,r17,6
 4024f78:	11c00e44 	addi	r7,r2,57
 4024f7c:	380890fa 	slli	r4,r7,3
 4024f80:	12000e04 	addi	r8,r2,56
 4024f84:	04c00034 	movhi	r19,0
 4024f88:	9cc36204 	addi	r19,r19,3464
 4024f8c:	9909883a 	add	r4,r19,r4
 4024f90:	24000117 	ldw	r16,4(r4)
 4024f94:	213ffe04 	addi	r4,r4,-8
 4024f98:	24000b26 	beq	r4,r16,4024fc8 <_malloc_r+0x128>
 4024f9c:	01bfff04 	movi	r6,-4
 4024fa0:	00000306 	br	4024fb0 <_malloc_r+0x110>
 4024fa4:	1800d60e 	bge	r3,zero,4025300 <_malloc_r+0x460>
 4024fa8:	84000317 	ldw	r16,12(r16)
 4024fac:	24000626 	beq	r4,r16,4024fc8 <_malloc_r+0x128>
 4024fb0:	80800117 	ldw	r2,4(r16)
 4024fb4:	1184703a 	and	r2,r2,r6
 4024fb8:	1447c83a 	sub	r3,r2,r17
 4024fbc:	19400408 	cmpgei	r5,r3,16
 4024fc0:	283ff826 	beq	r5,zero,4024fa4 <_malloc_r+0x104>
 4024fc4:	400f883a 	mov	r7,r8
 4024fc8:	9c000417 	ldw	r16,16(r19)
 4024fcc:	02400034 	movhi	r9,0
 4024fd0:	4a436404 	addi	r9,r9,3472
 4024fd4:	82405f26 	beq	r16,r9,4025154 <_malloc_r+0x2b4>
 4024fd8:	80c00117 	ldw	r3,4(r16)
 4024fdc:	00bfff04 	movi	r2,-4
 4024fe0:	1884703a 	and	r2,r3,r2
 4024fe4:	1447c83a 	sub	r3,r2,r17
 4024fe8:	19000410 	cmplti	r4,r3,16
 4024fec:	20010a26 	beq	r4,zero,4025418 <_malloc_r+0x578>
 4024ff0:	9a400515 	stw	r9,20(r19)
 4024ff4:	9a400415 	stw	r9,16(r19)
 4024ff8:	1800ff0e 	bge	r3,zero,40253f8 <_malloc_r+0x558>
 4024ffc:	10c08028 	cmpgeui	r3,r2,512
 4025000:	1800c11e 	bne	r3,zero,4025308 <_malloc_r+0x468>
 4025004:	1006d0fa 	srli	r3,r2,3
 4025008:	1008d17a 	srli	r4,r2,5
 402500c:	00800044 	movi	r2,1
 4025010:	18c00044 	addi	r3,r3,1
 4025014:	180690fa 	slli	r3,r3,3
 4025018:	99400117 	ldw	r5,4(r19)
 402501c:	1104983a 	sll	r2,r2,r4
 4025020:	98c7883a 	add	r3,r19,r3
 4025024:	19000017 	ldw	r4,0(r3)
 4025028:	1144b03a 	or	r2,r2,r5
 402502c:	197ffe04 	addi	r5,r3,-8
 4025030:	81400315 	stw	r5,12(r16)
 4025034:	81000215 	stw	r4,8(r16)
 4025038:	98800115 	stw	r2,4(r19)
 402503c:	1c000015 	stw	r16,0(r3)
 4025040:	24000315 	stw	r16,12(r4)
 4025044:	3807d0ba 	srai	r3,r7,2
 4025048:	01000044 	movi	r4,1
 402504c:	20c8983a 	sll	r4,r4,r3
 4025050:	11004536 	bltu	r2,r4,4025168 <_malloc_r+0x2c8>
 4025054:	2086703a 	and	r3,r4,r2
 4025058:	18000a1e 	bne	r3,zero,4025084 <_malloc_r+0x1e4>
 402505c:	00ffff04 	movi	r3,-4
 4025060:	2109883a 	add	r4,r4,r4
 4025064:	38ce703a 	and	r7,r7,r3
 4025068:	2086703a 	and	r3,r4,r2
 402506c:	39c00104 	addi	r7,r7,4
 4025070:	1800041e 	bne	r3,zero,4025084 <_malloc_r+0x1e4>
 4025074:	2109883a 	add	r4,r4,r4
 4025078:	2086703a 	and	r3,r4,r2
 402507c:	39c00104 	addi	r7,r7,4
 4025080:	183ffc26 	beq	r3,zero,4025074 <_malloc_r+0x1d4>
 4025084:	02bfff04 	movi	r10,-4
 4025088:	381690fa 	slli	r11,r7,3
 402508c:	3819883a 	mov	r12,r7
 4025090:	9ad7883a 	add	r11,r19,r11
 4025094:	5811883a 	mov	r8,r11
 4025098:	40800317 	ldw	r2,12(r8)
 402509c:	4080bc26 	beq	r8,r2,4025390 <_malloc_r+0x4f0>
 40250a0:	10c00117 	ldw	r3,4(r2)
 40250a4:	1021883a 	mov	r16,r2
 40250a8:	10800317 	ldw	r2,12(r2)
 40250ac:	1a86703a 	and	r3,r3,r10
 40250b0:	1c4bc83a 	sub	r5,r3,r17
 40250b4:	29800410 	cmplti	r6,r5,16
 40250b8:	3000ba26 	beq	r6,zero,40253a4 <_malloc_r+0x504>
 40250bc:	283ff716 	blt	r5,zero,402509c <_malloc_r+0x1fc>
 40250c0:	80c7883a 	add	r3,r16,r3
 40250c4:	19400117 	ldw	r5,4(r3)
 40250c8:	81800217 	ldw	r6,8(r16)
 40250cc:	9009883a 	mov	r4,r18
 40250d0:	29400054 	ori	r5,r5,1
 40250d4:	19400115 	stw	r5,4(r3)
 40250d8:	30800315 	stw	r2,12(r6)
 40250dc:	11800215 	stw	r6,8(r2)
 40250e0:	40318240 	call	4031824 <__malloc_unlock>
 40250e4:	80800204 	addi	r2,r16,8
 40250e8:	00000306 	br	40250f8 <_malloc_r+0x258>
 40250ec:	00800304 	movi	r2,12
 40250f0:	90800015 	stw	r2,0(r18)
 40250f4:	0005883a 	mov	r2,zero
 40250f8:	dfc00917 	ldw	ra,36(sp)
 40250fc:	df000817 	ldw	fp,32(sp)
 4025100:	ddc00717 	ldw	r23,28(sp)
 4025104:	dd800617 	ldw	r22,24(sp)
 4025108:	dd400517 	ldw	r21,20(sp)
 402510c:	dd000417 	ldw	r20,16(sp)
 4025110:	dcc00317 	ldw	r19,12(sp)
 4025114:	dc800217 	ldw	r18,8(sp)
 4025118:	dc400117 	ldw	r17,4(sp)
 402511c:	dc000017 	ldw	r16,0(sp)
 4025120:	dec00a04 	addi	sp,sp,40
 4025124:	f800283a 	ret
 4025128:	01008004 	movi	r4,512
 402512c:	01c01004 	movi	r7,64
 4025130:	02000fc4 	movi	r8,63
 4025134:	003f9306 	br	4024f84 <_malloc_r+0xe4>
 4025138:	14000317 	ldw	r16,12(r2)
 402513c:	39c00084 	addi	r7,r7,2
 4025140:	143f721e 	bne	r2,r16,4024f0c <_malloc_r+0x6c>
 4025144:	9c000417 	ldw	r16,16(r19)
 4025148:	02400034 	movhi	r9,0
 402514c:	4a436404 	addi	r9,r9,3472
 4025150:	827fa11e 	bne	r16,r9,4024fd8 <_malloc_r+0x138>
 4025154:	3807d0ba 	srai	r3,r7,2
 4025158:	01000044 	movi	r4,1
 402515c:	98800117 	ldw	r2,4(r19)
 4025160:	20c8983a 	sll	r4,r4,r3
 4025164:	113fbb2e 	bgeu	r2,r4,4025054 <_malloc_r+0x1b4>
 4025168:	9c000217 	ldw	r16,8(r19)
 402516c:	00bfff04 	movi	r2,-4
 4025170:	85400117 	ldw	r21,4(r16)
 4025174:	a8ac703a 	and	r22,r21,r2
 4025178:	b4400336 	bltu	r22,r17,4025188 <_malloc_r+0x2e8>
 402517c:	b445c83a 	sub	r2,r22,r17
 4025180:	10c00408 	cmpgei	r3,r2,16
 4025184:	1800541e 	bne	r3,zero,40252d8 <_malloc_r+0x438>
 4025188:	00800034 	movhi	r2,0
 402518c:	10894f17 	ldw	r2,9532(r2)
 4025190:	00c00034 	movhi	r3,0
 4025194:	1d496017 	ldw	r21,9600(r3)
 4025198:	10bfffd8 	cmpnei	r2,r2,-1
 402519c:	85b9883a 	add	fp,r16,r22
 40251a0:	8d6b883a 	add	r21,r17,r21
 40251a4:	1000d626 	beq	r2,zero,4025500 <_malloc_r+0x660>
 40251a8:	ad4403c4 	addi	r21,r21,4111
 40251ac:	00bc0004 	movi	r2,-4096
 40251b0:	a8aa703a 	and	r21,r21,r2
 40251b4:	a80b883a 	mov	r5,r21
 40251b8:	9009883a 	mov	r4,r18
 40251bc:	4025e340 	call	4025e34 <_sbrk_r>
 40251c0:	102f883a 	mov	r23,r2
 40251c4:	10bfffd8 	cmpnei	r2,r2,-1
 40251c8:	1000a826 	beq	r2,zero,402546c <_malloc_r+0x5cc>
 40251cc:	bf00a636 	bltu	r23,fp,4025468 <_malloc_r+0x5c8>
 40251d0:	00800034 	movhi	r2,0
 40251d4:	1509cc17 	ldw	r20,10032(r2)
 40251d8:	ad29883a 	add	r20,r21,r20
